(lp0
(lp1
F152.99682654560823
aF150.7378209965765
aF141.34476488540852
aF42.38102001225518
aF62.150819807726926
aF87.82787280218638
aF11.281108305438778
aF11.281108305438778
aF11.281108305438778
aF17.93279480672248
aF15.04952574114711
aF13.678646169074089
aF31.169231649871097
aF53.39728378469061
aF62.82944385917986
aF75.49835336825804
aF264.06992692249213
aF254.98224763592967
aF252.72255617521697
aF239.5534027342788
aF159.14958692788707
aF124.41607191000439
aF91.97987778654918
aF19.691862811550116
aF116.68579831061827
aF144.9789474185449
aF20.47435157684241
aF21.32046179651082
aF92.00019291953633
aF120.07763594234024
aF148.16174305167553
aF148.16174305167553
aF120.07763594234024
aF92.00019291953633
aF77.44358331077446
aF77.44358331077446
aF15.034622738576395
aF20.05927113362626
aF14.490465313076076
aF4.525748148273824
aF31.08954962059252
aF4.525748148273824
aF31.08954962059252
aF14.490465313076076
aF14.490465313076076
aF17.030711459333823
aF27.26757197740962
aF19.334585481755607
aF12.093178577353232
aF11.531998829832085
aF15.10006459478963
aF110.49780898586805
aF168.27757397054927
aF167.0461593462971
aF157.7038298132503
aF157.3600179858856
aF173.41933970381046
aF1020.3942992832905
aF979.1761182072247
aF933.3139247414285
aF881.6620283711579
aF804.3015176165976
aF765.9383633402517
aF724.1560568587322
aF300.5020391328913
aF208.0543737588908
aF176.0702170683238
aF153.62559729383798
aF77.58342593131701
aF40.46393833765927
aF42.80665880813669
aF79.6998908457485
aF99.10089007131914
aF66.31306738509724
aF70.95522168113504
aF171.94509062239044
aF101.61532440012405
aF88.93937077635971
aF67.0112722528741
aF45.44581825355414
aF34.06387386343452
aF83.05495958549481
aF64.01631986671198
aF21.600189156100857
aF166.83140057703721
aF160.14468426790586
aF81.11933395355011
aF81.36691933074228
aF44.658803471058114
aF90.78989412249807
aF171.23123822344513
aF177.7508771141604
aF201.00849860586428
aF243.03951390509957
aF199.12338116194772
aF262.5318112719676
aF243.03951390509957
aF201.00849860586428
aF243.03951390509957
aF262.5318112719676
aF201.00849860586428
aF243.03951390509957
aF262.5318112719676
aF199.12338116194772
aF180.66842205663923
aF221.2273259625299
aF249.79246658585285
aF193.097858978339
aF193.097858978339
aF154.9935299764966
aF98.55709570370486
aF60.41284884944507
aF11.841413981445873
aF13.214407311945342
aF21.33836394370458
aF59.533835985937515
aF52.66622100183423
aF50.809687478484435
aF30.818460303989287
aF30.4637004665885
aF86.50640625456461
aF59.36453908218682
aF63.86596824874714
aF48.086924108302824
aF24.664905054982714
aF15.781075761492083
aF49.255258992988345
aF57.978899529472805
aF98.85955721877991
aF20.733590880588544
aF15.44099830335929
aF67.39448067456979
aF66.4430695631624
aF67.14639801508557
aF69.32507418177292
aF11.253989534540676
aF19.88262423769619
aF20.899174054809667
aF149.58958269707796
aF113.12626652355782
aF146.48443612580726
aF185.0291886544268
aF217.5164857321716
aF185.71166405580766
aF132.37810686672745
aF105.5655230668483
aF88.10354720790788
aF62.21889251846586
aF39.01682213828562
aF43.61521854417321
aF38.2100088032909
aF13.624038682376668
aF16.934748129017127
aF66.48458711557343
aF100.02158512574479
aF103.42083879610087
aF59.17639381965339
aF10.32666675123648
aF8.94494582648109
aF16.303951400972668
aF12.543671077829128
aF15.409974012580198
aF33.7879934375638
aF56.47896567588424
aF95.99649104938179
aF67.8625077369731
aF43.80657310647891
aF26.520273906799233
aF21.03278063931002
aF34.3110754424042
aF83.76657480062501
aF109.20259291855594
aF10.075104340721861
aF7.949439700323829
aF14.349025544439586
aF138.71817777899847
aF118.08407929188316
aF94.76322801733568
aF60.454718284754286
aF58.209866759924374
aF15.325059927359545
aF18.169130733115605
aF58.56501058877529
aF32.93514426296909
aF36.14499542231019
aF40.429450436957396
aF2.866055224476778
aF31.313250211221405
aF54.34379112919306
aF107.13286141078662
aF162.65649981143687
aF190.23427075749117
aF198.2412637987829
aF246.5332307680193
aF245.70164658062737
aF284.60827989433847
aF282.8697080356699
aF230.66221693309163
aF173.0495047012169
aF63.28250507834323
aF20.925752385970096
aF126.11294231024269
aF93.22820533462507
aF190.2956013521187
aF164.94358351532819
aF142.80206798603012
aF121.04066003077095
aF94.84034653828962
aF69.62966646892299
aF75.64866989016545
aF173.87188663229264
aF131.04604224841492
aF146.0930131843295
aF148.7357130662126
aF151.59532225460634
aF151.39009772396759
aF9.606202454947198
aF12.116289950029863
aF11.572177314519712
aF11.456357506543677
aF14.127465970507052
aF13.181325021005234
aF13.146648703551703
aF72.42291294851053
aF137.27849936939958
aF177.25958600547074
aF158.37251160616464
aF130.78212145745172
aF93.08845054587985
aF69.34306352439015
aF69.00709837226144
aF129.65098724918508
aF170.57027441695067
aF225.1455527967003
aF233.3354500122702
aF33.36009591352901
aF29.82069963936399
aF155.26213568707968
aF155.01670539755307
aF153.3858371006921
aF153.50608013357305
aF153.51377433430176
aF100.11656479535485
aF64.7159874479497
aF18.43711008329939
aF61.244135434090445
aF29.966162032027057
aF50.088428596093486
aF67.98069746916475
aF92.1832437534202
aF116.10918893978402
aF143.55054335113832
aF171.52704853770203
aF140.93055117357258
aF93.69650328790046
aF84.88978528288123
aF9.387385418826474
aF6.753333427486592
aF31.103199746952303
aF11.290239169841232
aF40.42281015680892
aF44.05992818613399
aF37.98117357485227
aF27.840007819443823
aF45.07864778764383
aF48.01402722562823
aF78.43349485164029
aF120.70892951737959
aF83.43542790001862
aF101.92408007875311
aF138.29303452151763
aF156.0432406240084
aF159.1214665383489
aF146.81041572150824
aF59.34271572085422
aF7.618458744938918
aF15.726328229208724
aF13.431062218194308
aF11.43850408132282
aF30.66520203029539
aF51.51833604786697
aF63.37020117948418
aF13.335624014249104
aF14.16553509836541
aF4.5087092284072545
aF36.13594314528457
aF90.95933351038649
aF178.1000919110013
aF190.17747722241148
aF190.69595770854522
aF59.37686112617492
aF20.325297658337984
aF12.965132731789685
aF73.21625736765967
aF30.01112610686378
aF165.010337773151
aF215.596128911282
aF269.04503783027263
aF22.49555493725295
aF19.535706278562074
aF17.400648708477526
aF20.180041926124222
aF19.48176212108974
aF17.98765298701006
aF18.427216424089785
aF33.162934565038945
aF40.40876344778147
aF38.86768926105361
aF66.9621197942379
aF88.24161817822768
aF98.98157218578697
aF19.739817985790015
aF33.22691243009593
aF141.50314005714546
aF208.06650356906545
aF217.47608846433198
aF234.38745271980096
aF288.71868061929484
aF331.1563900355461
aF242.22923921571365
aF238.43672222209895
aF221.227107893454
aF141.5109083890707
aF147.7280406859816
aF27.68570320972969
aF9.387385418826474
aF9.778872565343312
aF52.91974015576042
aF36.74586599454651
aF12.001272144161302
aF41.09715102318268
aF50.6306237527333
aF63.40168157322148
aF31.419310347394635
aF9.12423557306718
aF38.83917990036407
aF27.00647871524883
aF89.73389193321032
aF91.11179012952914
aF19.90921220694618
aF25.363688784069673
aF73.19319829533687
aF23.523242764817585
aF19.640569086297322
aF21.002629243194022
aF26.074288537511155
aF6.8345278827272296
aF21.300811343248427
aF29.197835448180662
aF50.63104851012769
aF84.644446312627
aF143.66121177671354
aF80.15077834035435
aF62.76044448853089
aF96.80907396336727
aF130.65468775383468
aF173.75599176511315
aF260.975853509995
aF255.55783117516825
aF211.04608062698986
aF135.26727086633187
aF53.12326456037833
aF2.9470674531488985
aF53.2203694983735
aF44.83160326165719
aF23.10545778721708
aF15.628265125823832
aF20.686280872546707
aF9.121234280363604
aF89.19888518345857
aF6.397561905311454
aF23.14091401311359
aF132.0864094682748
aF13.921323715599161
aF14.017459252369385
aF14.770305293801375
aF10.135453152814605
aF10.210328523923003
aF10.218119643696205
aF10.137121848835202
aF10.118950956036393
aF10.149006293808018
aF10.132563262449537
aF10.123515978384514
aF162.44041481765206
aF165.35203236373508
aF165.6838920737574
aF155.25914202952947
aF127.34077335522124
aF16.375342615518047
aF30.624590322603762
aF2.51409647078398
aF33.946195828523734
aF35.1787768736995
aF19.23512692790727
aF35.71516811703027
aF115.51366975899413
aF80.60280817121837
aF38.078560313800544
aF44.852014801712265
aF22.47162960499865
aF17.794715548774892
aF26.17903402883194
aF137.23403273637047
aF215.68353746899632
aF216.5559177014933
aF183.611793445422
aF157.40061656687018
aF126.71912961973821
aF110.72350552229221
aF101.08430465018122
aF93.544806790552
aF114.78328671796243
aF66.84887193547003
aF31.47743746842636
aF31.305371343909407
aF62.40399150729912
aF15.5529495036662
aF39.31587839937888
aF70.85767583676143
aF52.80695642214847
aF36.783701753266975
aF6.549470812577082
aF8.241814595135084
aF39.83828139847127
aF56.30333150907478
aF71.34663280182316
aF53.289602596479966
aF68.75167557712348
aF38.64502486007119
aF25.104237984762754
aF153.69401463542502
aF169.21494595733233
aF204.62580008854036
aF306.5107448545887
aF344.6694475166237
aF446.56059206816127
aF465.0624990520081
aF499.81061602483845
aF525.6775903650034
aF524.7402260299885
aF525.8579261204212
aF525.2830222119951
aF525.249621119926
aF44.92035396734274
aF43.37329242690363
aF43.37329242690363
aF58.144916248645984
aF108.99196107783118
aF114.95994343574895
aF31.189196971236104
aF29.78959315404958
aF32.41012037480625
aF20.890117120383028
aF11.362537521039533
aF15.203391139531378
aF13.044777366650138
aF32.76316986328766
aF54.68590453994154
aF47.417294413267214
aF79.22770649454314
aF101.7124526362682
aF87.02802583421598
aF78.01050515239533
aF102.32428991516586
aF63.62049897059457
aF21.280961418562782
aF22.497746372946423
aF114.58185727422585
aF92.63746035739071
aF162.068918651837
aF163.3635246497098
aF217.55596766777657
aF226.86853412059202
aF265.5253815684022
aF259.16343880049885
aF214.39084986863395
aF165.43955852110503
aF143.12993398482462
aF137.39003559537187
aF108.35798486099517
aF64.48395142693626
aF11.038780270978284
aF16.85522974088846
aF25.617475713242452
aF10.799864299924945
aF33.12944473577401
aF37.78004978332193
aF10.35409840317154
aF5.923498518719881
aF44.18768399556281
aF76.7915063617319
aF95.13088449392637
aF55.25471643466774
aF15.998697391201512
aF58.14937296472166
aF66.1405019290844
aF40.235449732557214
aF67.29540227439055
aF20.53735347772334
aF33.351338099726874
aF57.922594481215604
aF85.7254225519681
aF66.05174161439626
aF42.78196262160417
aF16.875672027605525
aF3.5335223478583346
aF16.391990981126582
aF25.50065093688209
aF18.163071722187127
aF91.88557025687128
aF114.97169803986466
aF93.86181997271362
aF92.36116362914578
aF82.99081648220111
aF46.04002609813574
aF31.556605579196162
aF2.5692342805846593
aF27.2303034844192
aF16.656234816672452
aF21.231519603077892
aF38.250559844745375
aF35.533537431867025
aF68.8991487782627
aF84.96052148964426
aF69.52001306753799
aF142.054819426867
aF109.66517155402978
aF134.94931236377153
aF94.04648049911994
aF64.04682364765934
aF67.18642939828811
aF78.43146909213283
aF41.06358038111702
aF8.410915582918198
aF63.266037534948794
aF28.91024303564493
aF24.783933743419134
aF40.33705551557749
aF13.04407197759496
aF24.198718828336332
aF24.870795438341723
aF21.749579303791325
aF22.094633744092203
aF22.012109375136568
aF12.785033873409557
aF11.844192306918925
aF11.080649799425695
aF10.938117599993266
aF11.725365895669102
aF11.85203148028678
aF11.748338188399934
aF11.702229963416048
aF11.812744221613427
aF11.845428836470385
aF32.37800849061812
aF32.34663961299804
aF11.766580783318307
aF11.766580783318307
aF58.23373139510913
aF79.95224069659567
aF105.85275170058554
aF33.71086207322728
aF18.363189388764894
aF11.058776406828061
aF49.805102421965046
aF41.83780749843334
aF58.996236125791356
aF12.173170483738689
aF17.502898984075546
aF10.713096716511663
aF24.757929025654754
aF20.02995571033047
aF68.95632739559206
aF108.79808463590945
aF69.73051003578868
aF33.95837319817273
aF14.471961479444223
aF8.876542640523757
aF15.174027874310761
aF51.63389491611536
aF51.63389491611536
aF11.165554742745993
aF38.58872386665807
aF19.59887920376371
aF18.417702893550835
aF11.221037274820613
aF58.82534750068181
aF66.73714689446298
aF79.66502674831274
aF106.39825278695744
aF73.9895283467173
aF73.9895283467173
aF88.10084488894523
aF34.95357399366232
aF26.72907492838701
aF24.823637168333924
aF42.92019491092515
aF19.98392869052294
aF80.8642708623694
aF80.8642708623694
aF50.47219080932129
aF124.80304075242178
aF135.7438405519358
aF125.77618280372357
aF188.0518145731069
aF194.3652449241534
aF171.32940389989147
aF236.47941525171655
aF243.88140472856725
aF252.60303320390628
aF248.60417822611174
aF309.00447603691197
aF309.0621462559925
aF315.86906114020553
aF315.86906114020553
aF304.91390690617277
aF283.7760393149686
aF283.7760393149686
aF216.79857705611437
aF176.10740064129456
aF165.9414681895328
aF166.88958535774057
aF153.89312898489544
aF124.60633905395767
aF94.61471276061425
aF61.82169866314815
aF27.425025860520865
aF2.512880455946646
aF44.493677700232446
aF8.308764063772383
aF28.37993422100836
aF16.382265435362452
aF34.55975717573307
aF67.29607376528624
aF40.2412914052376
aF31.913458869441797
aF16.030901416861454
aF4.532138549592563
aF15.09216055209726
aF26.014045687849926
aF25.722380385739335
aF21.852737346428118
aF38.371301241663694
aF28.789877410991405
aF20.60092334682153
aF24.14788877587558
aF63.31993038203846
aF70.4695100848964
aF64.10394260021822
aF49.292652392948064
aF19.29992832948093
aF11.960314522174826
aF12.544688469254822
aF31.45105870988317
aF75.03522455409626
aF100.66460575036102
aF63.41772268707382
aF78.4547112933576
aF83.39434887080708
aF52.9447584404829
aF52.9447584404829
aF6.343909933153569
aF23.669112572150414
aF17.50125308190699
aF24.592441677935692
aF63.65504448902073
aF99.68152166345612
aF132.592420150025
aF134.6175873527452
aF184.56999952875057
aF193.19902994639784
aF195.70738342805495
aF246.0888010097609
aF239.68768531838924
aF221.68951624359076
aF197.36182648393697
aF177.1695672749066
aF177.1695672749066
aF131.21832496571335
aF89.92945095015901
aF48.36617424829108
aF13.420480127639973
aF25.456611468722397
aF16.366063063310452
aF27.26901739445244
aF28.592027564287722
aF19.71641683000063
aF34.14727405474324
aF56.82694944063661
aF49.59066475002835
aF20.084810700759697
aF20.084810700759697
aF16.635226686690537
aF16.69615522091026
aF10.793269846447082
aF38.08191417929856
aF12.8718395505414
aF77.75711599381879
aF72.04701232358806
aF157.0585171563508
aF118.70951044520999
aF155.7501254852939
aF155.7501254852939
aF122.13609406266593
aF79.02494322595561
aF62.87646673237274
aF71.2124920983806
aF13.507415986292674
aF11.417537267077119
aF17.614650922171773
aF27.42030083965917
aF35.96486653417945
aF26.294129112467296
aF23.412006166842204
aF1.2180652358149733
aF7.723939184955281
aF40.322580657909555
aF36.44902887422648
aF43.48734167609207
aF51.95796979311283
aF55.8368461809974
aF56.04097098716335
aF82.2292582503449
aF101.82218382119936
aF106.74010547714636
aF116.6703075533246
aF130.41498934612625
aF148.4677224153255
aF114.88059947867028
aF117.02359183944947
aF124.75466252828123
aF116.42530364905963
aF140.3171325356094
aF101.12192921442218
aF71.39485498130384
aF43.14729859643443
aF11.86411072006757
aF13.415387536435132
aF43.06617935168138
aF51.403667803867584
aF9.7468998332392
aF14.57649189089536
aF19.666493274454247
aF21.076297319718837
aF21.772360962445685
aF18.570491980063544
aF17.65637493338386
aF16.92982559946206
aF16.491600415588714
aF643.0840492688835
aF647.0440866049977
aF658.3609152260495
aF658.3609152260495
aF652.6610785641301
aF647.8340030806132
aF617.421956206725
aF606.437978645704
aF605.0799846243606
aF612.5703289579299
aF98.00457468484588
aF112.93854525204029
aF128.68152815104202
aF144.41139183096587
aF152.3127397947431
aF132.6792170299493
aF139.48898601001622
aF101.07983299996567
aF56.69765819642352
aF31.294541669913563
aF80.95314347419519
aF106.7831835242224
aF105.5618338080861
aF77.97700910801443
aF64.59221064926673
aF64.87587706790265
aF65.02096260007293
aF66.51922731208873
aF240.71829799557347
aF224.31945708530813
aF224.31945708530813
aF228.23450170224064
aF239.84955162672085
aF239.84955162672085
aF256.9634688374005
aF235.882598717573
aF245.82429294447877
aF237.67022911905056
aF174.4247698691321
aF159.0345369926233
aF147.85821647838208
aF138.9359792894833
aF127.99496502682773
aF102.97961812721232
aF102.97961812721232
aF85.77397861041791
aF77.36440661145167
aF71.19393696038001
aF74.1419095269957
aF82.56765274325205
aF11.457594368859297
aF70.5572669429874
aF135.56677847531884
aF153.68963861781359
aF153.68963861781359
aF187.0463083652731
aF206.65422389200697
aF206.65422389200697
aF241.8877060845354
aF275.5691186166304
aF246.95320769097867
aF223.29654074461718
aF182.8236498465583
aF135.45220776975938
aF82.02796625333077
aF49.36930834023308
aF54.026959161734766
aF14.904366985683879
aF2.581193949410225
aF10.16617279929611
aF18.810878069162488
aF10.339844790161742
aF9.69217056792163
aF22.557264741959052
aF32.52182122714547
aF17.58330719400692
aF10.775307944157511
aF5.4886464018072685
aF23.43804483519957
aF30.93898143652234
aF17.004039173231227
aF16.751603312292247
aF24.423817406167224
aF43.907460688798714
aF32.156236864436515
aF20.487076851895697
aF20.487076851895697
aF22.45658939344956
aF27.94327543444971
aF48.7451299519039
aF78.61659264581178
aF99.21582447377443
aF118.26149468460925
aF136.2239131502739
aF178.08633840998516
aF184.85459775056526
aF214.7606727790708
aF238.85541039450422
aF238.85541039450422
aF212.49373770419925
aF220.1937225296311
aF177.27574727511634
aF171.4053760008504
aF165.99447735408324
aF165.12074647879658
aF156.48784907324313
aF71.14722279565318
aF60.900633457671226
aF56.48444758176209
aF16.05325372644122
aF20.933481651491398
aF37.2601236771415
aF66.02403822526861
aF163.79606963741685
aF142.76420093424088
aF124.88854944810535
aF111.82050390924263
aF81.84793740763804
aF104.20499206880667
aF103.4720613794757
aF77.4505833433358
aF44.1732754648631
aF19.383425765694152
aF17.227733810839656
aF6.455868402815666
aF16.367528929259173
aF5.337805674700789
aF25.964433679478894
aF7.9040502664610655
aF23.22667598208976
aF36.315989122921366
aF13.161226978045589
aF12.595071158725009
aF61.80093328983284
aF61.107361061592556
aF61.107361061592556
aF49.504052802345356
aF62.49216637631426
aF109.5753207820956
aF100.3095040403062
aF53.30159937127202
aF45.42667055505459
aF38.828164183057886
aF28.656346896939365
aF11.192526669247405
aF26.38058899330056
aF8.816512262847464
aF11.855816458364828
aF23.52377528204633
aF21.623196861098258
aF28.604915366535923
aF17.913553805435733
aF67.63378618275284
aF42.095405264684715
aF13.295707813125707
aF37.265344836856535
aF28.640712010227507
aF15.715902233948796
aF27.23652951987449
aF34.292222634552644
aF43.25933010452082
aF79.0534223610326
aF95.93707540219955
aF95.93707540219955
aF129.51985660630356
aF152.14548839600354
aF170.98416792050486
aF190.20935061188715
aF229.21726270911265
aF238.36819081321056
aF253.84334759475297
aF260.4693491467217
aF293.68248569577014
aF301.5298750717958
aF323.01659287766705
aF329.3574736780882
aF340.1557353146562
aF351.47148245616125
aF372.00774373038803
aF378.68404215070376
aF340.34262728595036
aF307.2917792527526
aF268.8478739640262
aF252.008505677317
aF235.723562388212
aF220.26559517003506
aF196.84226398621888
aF162.49977694107747
aF141.96118229291758
aF121.92620449664851
aF110.00501103067991
aF88.24980986162838
aF66.91550931587108
aF55.64463186655286
aF36.555972893847056
aF10.431514237183968
aF18.269796805404653
aF24.84456247311863
aF36.64949089298917
aF5.531040631315432
aF18.04902275318364
aF9.329918710029943
aF50.369427146024805
aF22.736490395630636
aF9.130606648321065
aF18.675106137044917
aF1.748440393875334
aF19.67380513706476
aF5.54437549353708
aF13.647753752145338
aF14.000500231620002
aF21.304097723684276
aF7.122073494187
aF22.837623452358997
aF17.701305595859846
aF19.687462075745596
aF20.289830226215994
aF18.878050572574253
aF18.969698420807752
aF18.955427519772083
aF19.765401225751983
aF9.261996061421211
aF36.66611650576018
aF66.762164748331
aF84.85720251127063
aF99.71455612059053
aF83.66061693184696
aF70.23519513145132
aF41.476746317858634
aF22.480984878144785
aF22.480984878144785
aF18.807212398946355
aF11.383079897868079
aF11.490668202976357
aF11.216373802090935
aF13.316836034283074
aF172.7327883394275
aF172.7327883394275
aF118.84024512181219
aF70.66210735259999
aF70.66210735259999
aF70.66210735259999
aF33.48475819963679
aF23.161167210235682
aF18.68076382666873
aF34.808884121655105
aF34.808884121655105
aF52.412841719867856
aF52.23540437999308
aF95.06151415345975
aF118.3872816995961
aF87.11497381345347
aF41.57708609425849
aF55.50533308930289
aF19.110286683879476
aF21.115147328831842
aF21.115147328831842
aF51.30282682469349
aF51.30282682469349
aF69.38363840577311
aF128.50679085632956
aF147.85164487254858
aF162.9630809053215
aF162.9630809053215
aF199.91844766411947
aF199.91844766411947
aF188.8940482762655
aF153.55327427792952
aF163.7205531334274
aF138.02571604936202
aF127.03997924655246
aF88.58194523313449
aF53.25022007426259
aF25.399421518684864
aF5.639783519980016
aF21.946481147144098
aF57.14144593879755
aF72.4944565377227
aF113.32993335718626
aF129.63486098806607
aF160.80101498006863
aF176.12921890480195
aF164.2537174825687
aF132.0162574832505
aF119.43202959320497
aF98.49656494688404
aF89.79171436584447
aF76.38682803596997
aF58.817178012499845
aF60.268520361780816
aF61.624049103821804
aF59.88570247901062
aF57.78527413220973
aF12.973157633911457
aF121.64454832673209
aF120.41479330887455
aF15.228516833058157
aF7.184540291129765
aF11.67195960792739
aF7.184540291129765
aF13.756786118828277
aF8.924160890833857
aF7.184540291129765
aF13.221452248807624
aF12.237244043277553
aF25.06511260542804
aF25.06511260542804
aF12.450143829489013
aF12.335834967478823
aF23.989061387767773
aF33.544535774252736
aF51.80467635180214
aF8.09278091863611
aF22.061307635906655
aF45.35117091327013
aF22.66162354882612
aF13.012292190414332
aF20.99908638392634
aF15.440172250548269
aF54.97026945824837
aF12.6770302471294
aF14.060453823966201
aF14.060453823966201
aF29.935871854584594
aF44.998259116241464
aF40.97668573700063
aF34.44330824310749
aF34.79717207939371
aF59.27430661348632
aF74.2297359450915
aF90.14279584784785
aF114.28069010288647
aF101.58361468148486
aF101.58361468148486
aF95.6635247366627
aF104.32931661793765
aF97.66453608926903
aF99.47857102133172
aF116.77176789402735
aF120.84498560843785
aF98.88355786680144
aF120.84498560843785
aF120.84498560843785
aF133.3795434652491
aF132.54699961594307
aF105.9282302646455
aF99.78197354944692
aF89.1528172273069
aF69.69437511224243
aF66.73384784600695
aF53.186000675750755
aF21.0978932652237
aF16.49475113494014
aF14.996230472791474
aF20.88291211429115
aF26.717654186099143
aF33.953205300745815
aF31.356980518070696
aF32.28512568283799
aF34.06554866036531
aF72.06137737255844
aF77.50947595825032
aF102.01614757449397
aF125.85275783935725
aF137.2057446766112
aF139.97862833141104
aF166.53461717926177
aF170.59486699736175
aF193.70662200329437
aF193.89826990312224
aF210.88939647797687
aF212.29188535022624
aF226.43380717690806
aF236.4568280173323
aF245.84416433335917
aF262.44069460327677
aF278.80498577835425
aF278.80498577835425
aF278.80498577835425
aF278.80498577835425
aF278.80498577835425
aF278.80498577835425
aF347.6636145967192
aF355.30707248344305
aF359.4396784630989
aF364.85902897038267
aF384.41875822394877
aF404.9694839745272
aF404.83632544727413
aF405.24061239519693
aF408.9419445878757
aF428.9339100671891
aF441.24686210125395
aF449.1798063092391
aF475.9212920285782
aF507.32218590429886
aF510.2520245802023
aF522.671705755943
aF530.7079928176717
aF536.4141159833775
aF120.62542241681524
aF126.08184357557877
aF135.33572773868897
aF120.48467883791521
aF120.48467883791521
aF120.48467883791521
aF120.48467883791521
aF120.48467883791521
aF120.48467883791521
aF159.93024684775872
aF155.2717535101863
aF170.82999175184213
aF207.81734771773355
aF210.83406065324485
aF182.40915986630466
aF264.0155312792744
aF317.16454996485754
aF311.973307452619
aF339.1374063200479
aF349.46034139280204
aF296.24792758781945
aF228.68091779134446
aF226.09689877975984
aF184.33128882227413
aF221.79844041430425
aF148.84173690825983
aF142.55630532816906
aF128.76195148676436
aF76.46864816565594
aF100.26043473090989
aF49.998284251786686
aF10.503119844237348
aF33.99410929909812
aF31.702089481154946
aF18.230337807580728
aF18.230337807580728
aF4.386001491599616
aF3.954488349458815
aF8.300286231252125
aF8.76953726340184
aF12.39190364110663
aF11.245856815687189
aF11.107909221162748
aF10.937424179793721
aF10.475114312184365
aF7.718084081635017
aF9.41950442301362
aF9.07406827845177
aF6.2166800798230595
aF5.004806690149158
aF5.221318662085971
aF5.221318662085971
aF6.641177022287586
aF20.392656377747745
aF70.90918783232945
aF36.89532859434685
aF8.42557756575255
aF65.24513000756039
aF93.9115492754897
aF93.90721132765154
aF93.91033115420134
aF63.385206516545715
aF21.548972787723084
aF14.476364381069246
aF15.988583153279396
aF10.524613702908814
aF78.11882269752134
aF93.63661127308622
aF129.33079480012705
aF130.4351354725653
aF164.10551685714506
aF116.33940437052823
aF116.33940437052823
aF14.599439448799497
aF16.059177033001408
aF18.403154502701486
aF18.403154502701486
aF18.403154502701486
aF51.69123508941365
aF48.642001978349064
aF40.445622085233275
aF40.445622085233275
aF45.73872789276601
aF3.885032067772428
aF3.885032067772428
aF2.433653471116473
aF7.536611729158088
aF45.497749119695115
aF71.95914356954601
aF88.77403914391209
aF85.1846015205047
aF115.3461159346143
aF155.4663569906131
aF173.85423978433505
aF173.85423978433505
aF97.8698878172135
aF117.80716137043011
aF117.80716137043011
aF50.923556169846016
aF73.88637414271679
aF61.06802060569102
aF8.352808228423719
aF23.48972611163584
aF39.58184457714785
aF21.390707060157343
aF28.368995210593955
aF36.45070607219429
aF44.15659998570799
aF69.497166859828
aF20.6695431478794
aF16.425728021084474
aF41.394776280990875
aF11.001729634829694
aF14.95011949482903
aF45.35931093956549
aF37.27214187906007
aF30.785427251522204
aF26.431796231281698
aF6.908081869013387
aF2.0778031101889276
aF58.490588893076136
aF75.64315102676136
aF118.06946214498387
aF26.696477001160535
aF38.97845860229286
aF20.686512347298624
aF33.96916822123895
aF16.52590831343176
aF4.63542055101881
aF20.57014279146481
aF48.68610316719955
aF51.30447191162584
aF55.69525216493252
aF112.91306993307248
aF112.91306993307248
aF92.80883319057232
aF133.1823411169598
aF130.24297650683877
aF186.21545898624402
aF186.21545898624402
aF179.09694180286235
aF157.62892681454784
aF96.32767962519978
aF66.3370427627926
aF31.596592459426738
aF6.620772600978613
aF11.598202436724389
aF11.598202436724389
aF11.598202436724389
aF11.598202436724389
aF11.598202436724389
aF11.598202436724389
aF11.598202436724389
aF59.67263710446976
aF68.47699241612406
aF64.11479226016033
aF54.339635447112705
aF47.41203685587833
aF32.521052794113444
aF16.26581144017705
aF71.79325557465282
aF71.79325557465282
aF22.128854139966908
aF14.700016846475254
aF21.21348185091393
aF7.416977363928526
aF17.77704121223573
aF17.762273494486596
aF31.959633872976614
aF39.92789530604014
aF22.716552395983147
aF23.409011109960225
aF22.8008708079154
aF85.58878013640728
aF84.72695628864172
aF88.34784269172124
aF48.08373168103701
aF56.10229663917199
aF37.51169631473411
aF46.951751752155744
aF56.55370834384693
aF15.06262710059035
aF40.66345281128058
aF54.804429669804975
aF7.2691348858105655
aF35.659828699332444
aF78.97489032035388
aF118.58990861718279
aF140.69920706156762
aF173.48446975435675
aF212.90074967816705
aF219.37160515309654
aF228.04850693094116
aF257.34661331921797
aF197.30680273873847
aF223.2076224277597
aF160.76031289718605
aF163.3594806040009
aF152.05320681641547
aF92.82575230406188
aF99.31119115592759
aF89.26865419106265
aF33.46789997700826
aF52.15722220129917
aF15.864439918650492
aF23.09019838286963
aF10.53831721086834
aF23.368175046038793
aF31.749687334537782
aF46.12013412987792
aF50.45593944508377
aF21.157853511603054
aF3.4394348586024313
aF0.4396641960605871
aF10.692009139985574
aF10.978965151009218
aF5.709839645217943
aF6.635371191690939
aF11.173650463468014
aF10.436676925943857
aF11.15497504458742
aF11.784681311038097
aF12.723713866692666
aF13.552997101091046
aF13.552997101091046
aF13.552997101091046
aF13.552997101091046
aF13.528154458452066
aF13.528154458452066
aF13.533006228664386
aF13.537723503185715
aF13.544859756525948
aF13.445260131623298
aF13.445260131623298
aF13.348276663655538
aF13.347067251611403
aF13.347067251611403
aF12.840365979144647
aF12.754365999851808
aF12.805975743113054
aF12.805975743113054
aF12.809603321871958
aF12.809603321871958
aF12.809603321871958
aF17.492176402908633
aF17.492176402908633
aF38.050373564421854
aF36.64097797995425
aF93.69442707451216
aF140.36982557813948
aF131.20172551456398
aF97.30656564332969
aF71.15290968428855
aF31.009454350126077
aF13.27009743318146
aF13.27009743318146
aF34.831973228315555
aF23.54031585510611
aF79.25040407099554
aF26.791415780407736
aF25.93030294794044
aF17.99471462263162
aF69.68908397591056
aF81.69041994398287
aF166.46903652783126
aF132.61410246348512
aF135.0678642000853
aF18.705809373695725
aF19.061239403418103
aF1.936199077204708
aF16.03319316794575
aF86.87781892922878
aF94.15802335935503
aF96.33080439673046
aF106.13579181516093
aF98.71961955611972
aF98.71961955611972
aF98.71961955611972
aF98.71961955611972
aF165.65172896584534
aF175.40170183488655
aF187.4148102435728
aF210.74703934841438
aF229.72295443451526
aF266.710250925522
aF264.2493911258537
aF276.8436457317523
aF296.21634248058575
aF308.98314384047535
aF70.5341427353321
aF60.901155032796574
aF42.83948043290928
aF34.03375754218457
aF22.13659566038333
aF18.82689710373557
aF29.255613126840952
aF26.297005037053054
aF31.253654899959862
aF22.291242468380883
aF30.5067128651194
aF21.28360610018183
aF19.629599938874478
aF11.123384235157138
aF67.89338142203695
aF18.530784780759443
aF17.733415390510235
aF40.37321411972559
aF69.27740105839757
aF102.44019880880938
aF138.91839745868305
aF166.75647246272453
aF200.18178542725514
aF249.94804554433142
aF240.86082954001867
aF223.59883449016496
aF224.87121335049935
aF172.42378229660122
aF189.53471324529522
aF137.6562593735899
aF141.8702472553092
aF96.11338300722642
aF101.16514253852348
aF51.67239286066454
aF33.16176575659875
aF43.463783140945296
aF12.490517048971867
aF14.666299937916275
aF24.456873293402428
aF23.41724406386496
aF65.46977034652991
aF89.59284853202054
aF89.59284853202054
aF109.60123004155368
aF96.83516032272618
aF90.61814380968774
aF50.96261090330443
aF22.00184227263746
aF5.901336739154046
aF9.049574238623652
aF6.238668872901895
aF37.20384121515062
aF37.20384121515062
aF35.23037765563933
aF90.87847550297876
aF173.94302744187945
aF202.58541946761574
aF202.58541946761574
aF240.82227065879428
aF267.8766160227318
aF272.96151340533373
aF215.294212248418
aF138.35428517142324
aF133.65671347326912
aF28.44413316713368
aF10.365549987702362
aF63.89367886127083
aF35.528937898264964
aF12.926732182224445
aF62.97684496729614
aF51.965943502741396
aF58.873093098572674
aF30.49125206726527
aF13.202218085644931
aF32.123628953281504
aF206.6887749873892
aF199.8635428323709
aF175.86353865014115
aF167.00666789779453
aF51.04652076696054
aF64.44997988205424
aF69.38815039858505
aF22.653650371040012
aF13.254521062158743
aF4.953165034756469
aF98.1403700291017
aF12.861563759159234
aF127.64574043724146
aF132.79967071310782
aF140.82089905514613
aF145.80105223928393
aF102.08265203865042
aF13.142249391073298
aF23.32535468216122
aF28.8626984300075
aF59.725748111000485
aF51.254913723297534
aF36.72028718124588
aF37.51584868325107
aF54.68176642428324
aF81.45607884244399
aF159.07320825180238
aF134.81345433607342
aF197.5424418556109
aF215.47445509307337
aF218.43676293720017
aF218.83830329399248
aF163.1357033572647
aF127.84220769005329
aF109.58930965641164
aF65.10381039633494
aF39.93972049933604
aF79.2225314202911
aF66.14103725807517
aF70.24462002265616
aF103.1396555765352
aF133.01875752772156
aF116.1319605081179
aF77.92913573824255
aF77.92913573824255
aF26.653547521851234
aF29.03886894883937
aF55.960928218059536
aF53.64076537903887
aF61.47746931640612
aF98.78152808031429
aF14.83567625810549
aF17.502594205689885
aF23.39445793955069
aF20.928012689787234
aF20.120726955931264
aF38.50346016275935
aF49.214461617528414
aF36.179809598922574
aF3.2490800014118135
aF31.580181198136646
aF63.683720367887645
aF7.417040764372191
aF28.681893619098126
aF38.025164332455155
aF32.67101286974273
aF17.334529448676264
aF12.460530381042314
aF10.172228710992254
aF114.10219087683897
aF175.3122097220031
aF5.790354894702429
aF27.61187056741727
aF27.61187056741727
aF71.52909084361536
aF86.85326236339647
aF104.57070228544227
aF60.43165538134369
aF63.929220695743844
aF36.676395458771715
aF38.02684734376628
aF6.410731068405028
aF52.488308125387995
aF74.2457245147983
aF11.179036094684824
aF9.767938767466548
aF16.001485275426734
aF11.052072253811811
aF2.2994721430479936
aF8.965562553419595
aF73.47141952899703
aF79.0325773234461
aF111.42955736503373
aF160.32167474881493
aF122.83606222309471
aF119.2787220361467
aF119.2787220361467
aF93.10940718125653
aF92.28833738703818
aF92.28833738703818
aF10.900871494652106
aF49.419309957512574
aF12.988041654771191
aF13.997040930882306
aF44.10747279016766
aF20.05969923553459
aF21.609785702430802
aF42.934878191838116
aF34.904738352562575
aF29.342844508723513
aF140.73929652942323
aF136.11167320164472
aF155.59024031209864
aF174.49376491318736
aF178.5014003930284
aF129.94201034137942
aF15.990957111192802
aF61.7681147948619
aF25.984595664949556
aF23.28101298401925
aF26.401724585674653
aF28.08588117770298
aF91.35590729009037
aF17.6421434497256
aF38.56845002023338
aF30.70121460366954
aF76.21666918455595
aF76.37877761340825
aF14.948397144581799
aF79.73398114577832
aF74.88549514516268
aF42.086430658061595
aF42.086430658061595
aF34.49602893322591
aF49.88031099392594
aF56.10683469946927
aF70.85261782006268
aF61.277676982786325
aF19.156020324556607
aF16.043797087659538
aF14.226776438280952
aF44.9229660914265
aF34.82640187223957
aF122.06662505203678
aF44.56770203134636
aF92.26083424805634
aF60.23330613158734
aF33.855307138343456
aF8.58380708375038
aF13.950321035481158
aF8.233053556541211
aF56.541487641048256
aF80.787368694312
aF27.54730034310855
aF7.078080488919879
aF18.769334544553487
aF7.779202849742057
aF12.900616881472184
aF24.848095520926776
aF9.381771356880192
aF13.328842950958531
aF199.10887521725527
aF152.6181481889631
aF99.6095880279385
aF57.64014491697992
aF33.22072858899825
aF35.93309187570528
aF59.49534311476088
aF32.91649901163987
aF61.46123238370194
aF62.869072327565284
aF90.5489470279415
aF108.75718076419064
aF184.9621292158272
aF161.51413343248902
aF162.85770565503285
aF158.09761804515156
aF189.18835542791004
aF317.8105746181375
aF73.4417831325838
aF74.05830435925039
aF66.9296395546509
aF56.333637483002626
aF45.86592868434352
aF58.490588893076136
aF1.7315787481040086
aF82.5241656305291
aF102.53957622866926
aF36.945929169389956
aF56.295523080543006
aF75.54370499943552
aF104.03082597807061
aF71.27894462166181
aF85.2538336531148
aF60.89989918566413
aF58.94580916671135
aF70.09393327956948
aF42.23426900512603
aF34.13527508229617
aF71.70835389156049
aF77.82600867633592
aF98.71961955611972
aF56.55370834384693
aF88.95846103496946
aF129.86591585026665
aF119.12043945078787
aF120.87810455079374
aF111.47388380764436
aF88.94537482559366
aF201.58628867173604
aF22.698834304705667
aF22.327223697317415
aF25.974550756311945
aF16.571789571077176
aF25.939804926374734
aF5.481561639740932
aF7.845774573028099
aF12.239161287199522
aF48.943909017305884
aF44.60388679265404
aF6.564993903777917
aF88.98296110027411
aF154.5163098532065
aF179.24695015261196
aF234.67713749551888
aF254.36670746240844
aF139.53137424604316
aF79.07969624919707
aF93.02258986867197
aF71.41822283993969
aF28.220007132018793
aF35.15954268998221
aF78.10925506784814
aF41.22265802568997
aF55.69525216493252
aF18.825874429171517
aF23.411534943050494
aF35.04791637045372
aF95.03310066546811
aF48.80560553770321
aF31.713393600037328
aF38.00584308104789
aF64.96451106224288
aF59.55542035402084
aF42.21403824751789
aF42.21403824751789
aF19.757985381590178
aF29.36329916115518
aF97.80403378506314
aF124.72860119820577
aF73.88799938470865
aF81.09343337152553
aF150.19880034085756
aF161.68185971338065
aF232.21044525108007
aF252.26926454632988
aF262.4803552693139
aF314.68076083282205
aF299.2755376594903
aF194.594166082855
aF180.5476597932261
aF34.1303804177757
aF38.8651007473844
aF17.931222144948432
aF58.35232234161088
aF72.31314788518482
aF156.60361954501866
aF192.77479800501504
aF245.12749965709725
aF140.95981622108536
aF16.738465115896105
aF25.765309288262582
aF15.484030772080377
aF42.21403824751789
aF17.94001911866888
aF11.71541857065179
aF11.71541857065179
aF10.817173233897657
aF62.16941011622166
aF94.15603695668898
aF124.80115457894563
aF49.96748792945017
aF23.522784257293637
aF17.621390772842986
aF43.05187294999012
aF62.16335449315682
aF38.377051345617964
aF56.916885011924876
aF33.85015764783783
aF128.93171970898192
aF128.0049033526392
aF94.97479212903328
aF145.0694183308925
aF193.49972810146429
aF266.871814272037
aF328.4295314223579
aF48.185206096613676
aF56.27557779412831
aF38.417303264859235
aF11.85332199773857
aF42.7795194138968
aF78.33520101724655
aF79.53744969166243
aF75.19347888139136
aF64.6801929236355
aF13.110460925088436
aF29.680317325965735
aF98.50686345748056
aF103.62964674787848
aF64.00227650991201
aF49.91445036362244
aF51.15771752186728
aF85.10246951158975
aF97.68856034525743
aF94.19384901294835
aF103.91794244077877
aF170.36527665316427
aF579.8155321364874
aF587.2932590864261
aF487.3896368023665
aF362.8004633881168
aF325.90655312256814
aF302.0040075113624
aF207.60480608464587
aF149.9867489701188
aF35.20836612153737
aF12.128174280166574
aF45.55522367393379
aF41.58079138814268
aF107.74676473002036
aF112.90456841782725
aF128.26483584179581
aF135.6469385214665
aF131.33823390002675
aF144.78170649264314
aF127.53716939620715
aF128.07838817595885
aF177.98221305531936
aF202.37770003387516
aF206.66120491402916
aF162.87197116263778
aF227.44896664343293
aF255.30951852670296
aF216.83999446961198
aF151.72782593704028
aF93.57302633387202
aF36.653122329674964
aF20.384903726317194
aF59.32426423434771
aF17.2829419008201
aF18.02439016786482
aF13.571167377781968
aF15.929269902066377
aF21.812054505521377
aF12.239161287199522
aF171.13102143636956
aF180.4180821363563
aF166.5390125523363
aF156.93311147550108
aF159.0013951668093
aF198.96421546713879
aF211.6342733292011
aF218.03956192187758
aF256.12014287696474
aF309.29491794944363
aF254.02842787307134
aF217.47167787387704
aF103.6829114045817
aF68.90404727713903
aF27.922669161278613
aF120.2855220247382
aF154.0127949994407
aF193.15729786723307
aF254.8713084843088
aF270.17580945127986
aF317.2922960420448
aF14.070247589440083
aF102.81831911651831
aF178.57406601992034
aF254.606075339844
aF220.38245234315602
aF207.33229838406726
aF140.48790413388755
aF81.52999382959578
aF200.73848348402058
aF197.8933524677915
aF167.2671014501754
aF119.57796970833853
aF72.17532539436431
aF14.202297117395347
aF32.38723903549234
aF72.31314788518482
aF85.71104595264978
aF68.49866758845525
aF46.525361605205866
aF19.039262405002834
aF3.362440442315991
aF40.197964142379625
aF61.68387837658115
aF88.8367409251098
aF105.4217573123394
aF158.99027986557132
aF106.3994696675561
aF25.489384669653766
aF12.97323183400863
aF71.21967234913936
aF72.08135305317936
aF71.31600060622262
aF71.33878894915107
aF38.33684400478191
aF28.80396282778011
aF60.44119149745052
aF37.12930499504838
aF42.24894216934562
aF11.70851077258891
aF72.31314788518482
aF70.81741850726422
aF55.354837286629575
aF190.47213891743678
aF169.38796654172705
aF170.20851437091244
aF171.08120813632098
aF172.01877229896243
aF214.50913619684854
aF186.3666468628143
aF226.6888896960199
aF199.43874368205405
aF139.39113808250738
aF88.52471351054332
aF58.93882581327116
aF53.808435712244844
aF18.513557134344158
aF26.76301606837161
aF49.05661624382257
aF17.558530504585313
aF36.83613885472257
aF50.45160895621741
aF31.59300875207889
aF39.148390154364215
aF75.74612044714615
aF174.96606513555753
aF157.59673273064593
aF134.53520663092092
aF124.36114934291484
aF58.46740989210032
aF76.31669438511705
aF79.00155799670405
aF27.064575225079874
aF2.6976500969271475
aF15.06262710059035
aF36.38055460422821
aF42.28878543748201
aF121.5489163144959
aF186.6905084960167
aF215.13005407050338
aF235.63979115685666
aF235.75103384341887
aF281.27510922798547
aF183.61012198493415
aF123.12981425555239
aF159.4779674811821
aF153.87695093471558
aF139.8637287833126
aF114.3873067166066
aF72.48334026046685
aF54.01168998345841
aF102.714133600307
aF61.04928329094807
aF89.58244509656154
aF137.96640853422457
aF183.5223302826432
aF167.54346242210323
aF216.05344256114307
aF251.91710944208447
aF357.37876637123577
aF211.75662399028147
aF211.46778806367467
aF211.20006974767338
aF227.43480870141428
aF215.66316090011077
aF184.9712519757385
aF144.32879380801882
aF142.1424125459511
aF136.95243262624547
aF100.24983571166646
aF102.30893432515275
aF128.6497678479939
aF57.13584915234803
aF16.966955755783793
aF92.8830846803072
aF78.21982526143049
aF8.571000154936812
aF8.571000154936812
aF8.571000154936812
aF8.571000154936812
aF104.62244985644038
aF119.92264298227784
aF90.65932091117485
aF84.38969226932335
aF15.583071564005317
aF45.76552974986699
aF60.41555916123836
aF39.02573613745442
aF190.70908888351624
aF214.9758015950074
aF234.39704825767583
aF28.303807337391248
aF20.678860564900848
aF34.06196908680586
aF47.12344611428562
aF60.58031027150465
aF94.97479212903328
aF94.97479212903328
aF196.01254227009306
aF196.01254227009306
aF300.1036386754985
aF334.67210559053495
aa(dp2
I0
F106.23985417496027
sI1
F91.37137189445437
sI2
F60.59814906332083
sI3
F872.7060440598117
sI4
F119.5613927558506
sI5
F91.33348214745344
sI6
F176.727097587631
sI7
F47.63651181813174
sI8
F92.72866976514341
sI9
F82.14398075640298
sI10
F73.97176416017916
sI11
F145.74798112658118
sI12
F65.29047898410346
sI14
F73.46706919566007
sI15
F634.8855296405443
sI16
F96.1040257313197
sI17
F116.53257355140711
sI18
F85.59705017083988
sI21
F91.46179985496742
sI23
F49.61679289112157
sI24
F232.75659126749312
sI25
F128.26813585616875
sI27
F47.95841935643735
sI28
F58.10235150138678
sI29
F50.64099787399305
sI31
F69.51600418439958
sI32
F146.18447121266553
sI33
F33.920415240063065
sI34
F93.65130641283193
sI37
F102.05783440489161
sI38
F86.28185957898506
sI39
F104.83777854333431
sI41
F40.673833800059356
sI42
F52.795925672670606
sI44
F73.10845951836919
sI45
F37.30366031402493
sI46
F120.4782982133438
sI47
F59.55969590583117
sI48
F82.44559815576679
sI49
F79.56281442383818
sI50
F61.0597711301898
sI54
F91.20403366258734
sI55
F159.05204387551868
sI56
F44.37253025001037
sI57
F126.67843573049448
sI58
F48.9134572120206
sI60
F91.84790525644993
sI61
F207.162451629916
sI62
F114.10204469212728
sI63
F190.92497336736972
sI64
F149.97516959455365
sI65
F80.93735244426631
sI67
F70.86467202419536
sI68
F107.23658224292527
sI69
F122.5669936625266
sI71
F162.17390715847094
sI72
F114.83077978567692
sI73
F109.13326739708917
sI74
F127.95443694901586
sa.