(lp0
(lp1
F330.41750911522615
aF335.7667619476248
aF8.032564058474565
aF8.032564058474565
aF8.032564058474565
aF7.410623262019739
aF5.365252637581555
aF5.169886616533248
aF41.43827100397221
aF28.015212977813107
aF11.952154543902868
aF10.269586668403505
aF11.724236258231887
aF13.6501025330917
aF12.650438775222923
aF48.19543559862336
aF9.69488248160808
aF11.764134410631092
aF5.961053602631394
aF9.56535584953938
aF5.961053602631394
aF9.56535584953938
aF5.961053602631394
aF5.961053602631394
aF5.961053602631394
aF5.961053602631394
aF4.793992162358393
aF25.481696143972975
aF7.386557887110175
aF7.386557887110175
aF7.386557887110175
aF26.161850179955138
aF7.386557887110175
aF7.386557887110175
aF15.41242255594864
aF23.897308015311594
aF9.684293242624875
aF29.319179855398435
aF25.187661779035427
aF0.9838685974769634
aF173.0277706515644
aF160.5522797144379
aF160.314020145537
aF162.27449436270894
aF177.33636256419615
aF60.98441726179277
aF6.799652719090681
aF10.269586668403505
aF24.82471038376401
aF7.929851477845519
aF338.20226799605183
aF334.19186217690134
aF218.5118635497821
aF214.0891098142543
aF154.49618901440297
aF146.54171274097246
aF34.18663236233995
aF36.89020745856845
aF21.093196339248678
aF28.691444632071665
aF5.701694890305445
aF39.30084571429371
aF39.2211300763913
aF7.439468921809586
aF12.11979185162718
aF32.25417143052852
aF22.83665631114063
aF6.169961932982409
aF18.282452690191633
aF43.154940916388554
aF6.543414780544981
aF130.39393295237878
aF152.1851953177109
aF15.582081783165732
aF11.580362176092374
aF7.081699997147775
aF9.89416061625393
aF18.72946038020324
aF8.041847605375596
aF1.6733568053184809
aF1.244007157460474
aF4.247708738386434
aF4.952316115465112
aF26.244639568990074
aF24.474503809602876
aF42.19945075433555
aF38.202465727353186
aF49.96761414358827
aF43.50416262132464
aF8.762818845680075
aF6.830653565584996
aF6.548272643138846
aF55.2810778153439
aF55.508014025494475
aF67.65478232907039
aF144.16927217836684
aF108.29559469904738
aF79.49603842535848
aF105.93022626263293
aF118.88167860588155
aF132.98291808257022
aF20.938503135326854
aF9.145865673432844
aF14.925957662199998
aF4.339179771371237
aF5.807390015883715
aF7.925264764408219
aF8.07282896474324
aF21.570763049299124
aF1.708798798698632
aF15.613431908256887
aF36.02308429495052
aF13.301689681639681
aF33.862667315335834
aF7.732342460229893
aF25.0980364786787
aF7.68999117417109
aF109.0105169575222
aF72.22171963895522
aF61.00780098695089
aF68.94968741677444
aF80.848150300596
aF100.19611077621012
aF175.32764586501048
aF193.63162738179227
aF302.6551559748262
aF296.0955588961477
aF428.6618865214354
aF216.80738638679745
aF195.4447231998316
aF24.58136268604553
aF67.41885233495998
aF90.49017413555134
aF98.4187624481036
aF94.55251483602828
aF226.02802563656698
aF227.71527644623458
aF239.15313946533914
aF250.18060948688074
aF251.26445179135956
aF253.38438432099525
aF2.396175691911251
aF2.734390384071049
aF2.6508526130713337
aF2.843588712848671
aF12.249136496538874
aF3.1716924882464883
aF2.862186293283389
aF5.038613366974383
aF10.8773242389271
aF338.2361422180935
aF419.1724928585012
aF447.91727568740924
aF24.414181845188047
aF15.470217321508077
aF11.165143906655048
aF11.789065735546583
aF9.773470649472491
aF10.352604178875575
aF7.303647271004154
aF53.79062135588485
aF55.40321514390426
aF139.37289309920027
aF158.574163389619
aF118.91422800356457
aF95.72193896539095
aF122.21371224397977
aF134.0650121012157
aF79.76205949143723
aF63.16595863241859
aF58.54696874397081
aF67.38739617205871
aF85.47554542090002
aF56.20020080227283
aF26.296867748937615
aF70.39900385501906
aF63.23156478497637
aF56.556603531905985
aF3.406447394781333
aF5.593432568277935
aF49.09661472884568
aF43.456741096686564
aF137.62203651848813
aF128.57692390697696
aF5.147077705905297
aF3.62128755168235
aF401.3227285462295
aF7.731350548154567
aF8.966810171570303
aF7.588581045606456
aF7.712886612704723
aF7.8098104830529484
aF22.657784957248364
aF25.681856166296082
aF8.686556828477665
aF19.62673532383765
aF10.932574389264046
aF11.55375415961961
aF30.481202714747486
aF4.905785813641056
aF31.13095502678811
aF27.802478861336493
aF19.181670199928234
aF17.401957994267153
aF19.230095130377695
aF41.77699624833
aF51.76589195644846
aF1.8244766627696776
aF11.336597808444575
aF37.97446580182788
aF7.605292846230786
aF36.72714967343547
aF33.70320360282895
aF104.0662829321944
aF112.71466509164289
aF91.42246278432235
aF51.787227066863394
aF22.154593849169338
aF11.06898772266348
aF28.392709021838595
aF13.81499077543516
aF5.589580436784108
aF12.957421948890717
aF46.218636162832375
aF26.881501631926852
aF46.16548341604688
aF79.44245719810985
aF92.00947812504462
aF12.047961431255546
aF5.5070848359978575
aF88.53848976835815
aF90.30290320576493
aF65.31689525111196
aF57.19514788540297
aF73.94667232134175
aF62.31098246151224
aF3.520413212618768
aF5.520557290185089
aF58.5647087081496
aF22.18834438186926
aF7.179463094569405
aF6.152035760104656
aF13.799051424923269
aF12.041368629912363
aF22.74472696983623
aF54.227448638959174
aF6.859184652688413
aF6.859184652688413
aF25.755896095480047
aF4.925538103207322
aF8.27785617805186
aF10.313549716659722
aF11.042645266621156
aF4.467180862993814
aF4.614347990403629
aF4.679317039142757
aF4.448278443620405
aF4.433645176974652
aF4.497997922502343
aF4.462222128083066
aF4.443372069872949
aF10.549252578671872
aF8.319334449363897
aF7.404964129126431
aF70.26192340463021
aF34.64106714122769
aF38.67224240450127
aF8.549074368571176
aF7.966113210683249
aF35.27534939514626
aF50.97818404309196
aF3.934333999350596
aF290.7784886959143
aF91.68370639354266
aF61.58960248451361
aF198.90725218980322
aF198.10655649277993
aF103.35617167782227
aF49.60838773381784
aF128.11597879682955
aF534.4250941296501
aF387.8237156510383
aF14.055622753442536
aF26.149216937411808
aF6.781048520815541
aF8.539412327202182
aF8.138666453650346
aF9.056100579398818
aF9.012127250764147
aF8.628285108079664
aF9.683226167815581
aF9.683226167815581
aF6.731151855894626
aF8.495329190107684
aF1.794570971882946
aF21.623545652227925
aF20.295019628467863
aF46.21516818596331
aF47.572899780898545
aF8.084171580493576
aF58.59377424129981
aF104.4739159276187
aF76.24965625779551
aF78.99248311034574
aF43.36858418308024
aF32.38629002392573
aF4.305876804748233
aF7.607967766225877
aF6.703811072511328
aF11.725669536310845
aF6.849491365754884
aF8.69573576861961
aF7.043434817407621
aF6.929305401036989
aF6.576949141914701
aF6.542826052165422
aF6.719306074339131
aF9.90536476470742
aF7.273517824168684
aF21.96740370744598
aF11.196966015640596
aF7.318276397770708
aF6.463210403392121
aF10.32205697337385
aF14.5771149515257
aF3.4811947290784966
aF5.190187567939271
aF4.601736737215698
aF76.96677584498747
aF64.4388298263975
aF94.16734116648033
aF116.9869959636294
aF117.50586446046462
aF145.19547650683762
aF187.82759720830012
aF175.40625881421286
aF207.25053136151527
aF186.36844979169254
aF170.6350703043294
aF136.01507222231015
aF115.53032203440033
aF129.76778102038926
aF124.63555055664386
aF114.96634086396321
aF123.53442933704326
aF109.66328662768532
aF81.70332725848787
aF77.54839608993063
aF56.07899085772979
aF42.16947820122266
aF52.30821999449104
aF29.985232291570025
aF21.59068352702909
aF46.70441605946569
aF61.9172390306771
aF46.91989078026387
aF8.923624373259923
aF6.504823012200372
aF5.376183008350143
aF17.718068321375277
aF11.043837193943752
aF2.030051689371114
aF15.407601970815344
aF35.758103381773886
aF40.16112691142623
aF7.110674363315935
aF5.775480551601307
aF4.7625468307844825
aF20.771059129553745
aF9.61316971173935
aF11.514923464991492
aF44.67420171401967
aF41.8091681144007
aF28.961768464826953
aF35.43767187041397
aF30.447689604714142
aF25.63785760762325
aF16.8358740789998
aF6.1943399222664475
aF4.461208590514698
aF45.31923668757535
aF68.19796803981318
aF45.972216914430234
aF53.01776047493181
aF33.99402225395252
aF15.449387074598503
aF7.156155592030849
aF9.113518901692652
aF38.52205142888596
aF50.33703986162739
aF72.1869315052577
aF77.40444994001057
aF59.73867246010626
aF12.966579511401008
aF16.610243463106773
aF7.124406705693813
aF47.104555623023096
aF39.60885787452739
aF97.80813245748081
aF87.62654642836618
aF147.70760563822327
aF199.75076243877686
aF160.7492782254787
aF116.11382983850717
aF64.43325391525573
aF60.19780257914209
aF60.19780257914209
aF8.63816687328389
aF18.94331777881119
aF42.664887132970705
aF19.715829050153335
aF17.530552748592537
aF24.072864134881353
aF16.352330949909096
aF16.352330949909096
aF5.897717957761292
aF10.94323675621534
aF105.34327863741596
aF114.54742422877835
aF149.24137588611745
aF153.89488490798666
aF128.75319965789166
aF136.87700002652412
aF115.98070813140905
aF101.8234353046165
aF120.24235474744182
aF106.56390507296146
aF100.86833799465278
aF80.11851413270503
aF79.11729282938757
aF51.048107388923306
aF50.698266527936426
aF50.698266527936426
aF46.018236690890326
aF38.43625072531892
aF29.95117268492514
aF24.06467417709137
aF1.4077160129772692
aF6.5482000450318525
aF15.51822744505321
aF20.367030510415244
aF39.703836943921175
aF49.674286598440275
aF58.525878074859705
aF58.525878074859705
aF79.26956344819571
aF84.56640245272185
aF102.49028880727181
aF64.10102107893074
aF68.85848886452233
aF40.588550390949734
aF25.75769830534212
aF9.300243808373665
aF11.756234198071377
aF10.567484473067166
aF10.567484473067166
aF10.874352470917085
aF12.637770309787237
aF7.174642109312345
aF1.7263019581608987
aF7.320180107800619
aF7.320180107800619
aF7.320180107800619
aF7.320180107800619
aF7.320180107800619
aF7.320180107800619
aF11.97359693562709
aF11.29669639863771
aF20.017053485593177
aF59.37915032984282
aF59.37915032984282
aF97.62340094340756
aF129.98107582211725
aF139.0015648035642
aF167.0893990802067
aF168.95009407142174
aF221.4795052753256
aF224.90968108787786
aF249.28581878794745
aF227.00160957151823
aF215.5524018459291
aF217.84507569354204
aF222.75456310313007
aF209.06367877834302
aF164.29267376949227
aF130.31821870817905
aF102.0673162754129
aF78.27169378999359
aF39.40687122919253
aF11.387101914129364
aF4.673356450947069
aF9.21284992583589
aF9.471438265301279
aF30.948980672972255
aF33.11471412538552
aF36.74112758840922
aF39.69688294729152
aF46.03964979703512
aF46.558418177729635
aF50.410115339200914
aF49.2117792658973
aF48.87985518910068
aF48.87985518910068
aF48.39736563645114
aF11.685750311845062
aF2.7900446998461654
aF6.578451404856056
aF17.3419908894608
aF3.5402821220107095
aF3.6866342297206307
aF9.858689679133697
aF10.828431732391444
aF7.391193408698202
aF5.019312987398163
aF6.146337725627978
aF10.790611827574631
aF25.92347021402132
aF49.856341598959915
aF51.98420302287037
aF13.499176097323067
aF17.332668010419557
aF16.048921978406156
aF6.264399997677997
aF16.104766680074356
aF8.786202257278644
aF21.521300165876024
aF5.25860650641537
aF2.4717624606589936
aF11.414254630260519
aF17.65511522488912
aF28.161935944373212
aF13.721952916408872
aF8.041847605375596
aF5.611597492340725
aF2.421916731060978
aF14.247805433793635
aF32.616288427929874
aF55.75166237965912
aF68.43890416984532
aF74.90167253529897
aF86.22247638351011
aF100.03050742296254
aF118.85522015044415
aF133.02014495959335
aF145.25557584378794
aF167.23442308465863
aF180.9592959580666
aF192.91696760180395
aF179.75940529461533
aF180.97937426303776
aF188.0106626344868
aF187.79509815092186
aF159.32471165590238
aF164.95538651243623
aF129.679669359618
aF117.59952388706397
aF73.61155806090274
aF65.50945718690751
aF65.93368960643195
aF39.06836374754627
aF41.7132559279133
aF12.943548879837483
aF6.714211250810845
aF20.514895751369572
aF13.40968177345565
aF6.371531936468564
aF6.811188477574595
aF7.0163530019497005
aF6.496396979950237
aF6.095443282874872
aF6.317441935964097
aF6.348042953595029
aF6.385289164695249
aF6.873185986205278
aF7.3909184287907355
aF7.9279745832652315
aF7.922246030890633
aF7.922246030890633
aF7.922246030890633
aF7.905575350233342
aF7.905575350233342
aF7.90877476176719
aF7.911951967131204
aF7.916765198459081
aF7.8502319176750115
aF7.8502319176750115
aF7.786227232359806
aF7.786227232359806
aF7.462415489156862
aF7.409599045042611
aF7.409599045042611
aF7.4411891184774435
aF7.443436582413522
aF7.443436582413522
aF7.443436582413522
aF22.310695335892476
aF22.311833849519893
aF22.311833849519893
aF0.3734142600052337
aF2.4755808166277684
aF2.512173633525066
aF63.35284496980351
aF40.807646738519935
aF13.932104122285656
aF12.826546101786787
aF1.0315828045008821
aF1.0315828045008821
aF104.75529853495547
aF110.36097819631954
aF133.87628447176155
aF201.05279141409608
aF175.33518522231867
aF184.79230918566938
aF187.83900991885335
aF8.20668645788927
aF4.7038847567013375
aF2.2375630615205453
aF20.05497187909255
aF26.069118746733174
aF9.285265981208427
aF8.557188981202962
aF0.506925452912945
aF8.041847605375596
aF8.041847605375596
aF8.041847605375596
aF8.041847605375596
aF73.58822471105287
aF78.54514336409741
aF75.86798496898382
aF85.70208410076403
aF94.12471282745013
aF109.64284412813383
aF129.21111531359875
aF142.76030866167653
aF152.86485016160782
aF165.81293710584043
aF7.882460400488933
aF7.289169878808345
aF10.352956659237531
aF4.9657315468393435
aF20.404523429037155
aF17.721247303035522
aF20.14656988233105
aF17.428087047203693
aF24.587427959162955
aF28.4977448478614
aF16.671157666342364
aF7.5741314633629555
aF6.732656903904313
aF23.630229544987063
aF65.45334253417175
aF254.20745672581486
aF265.03217992442956
aF286.7145018054775
aF293.32663624625064
aF261.7720719961925
aF66.7508748638977
aF41.37036887676921
aF3.8503920698249767
aF7.1902156882894
aF61.64182844568397
aF66.10792106810219
aF103.06330255804697
aF132.47674498596638
aF143.58471557843708
aF113.46704414846253
aF80.92820432785147
aF55.6707682356522
aF13.833881325427665
aF63.01315890073879
aF71.38643543210576
aF64.9977148734159
aF57.141345434589056
aF2.8849446974137765
aF3.678893104502054
aF11.011068669876257
aF11.469833755291413
aF7.765240766869055
aF25.619503309568554
aF55.070969044155945
aF14.886820377265646
aF17.880770545614805
aF23.456121699456485
aF2.727364365023169
aF12.333130415168808
aF10.363897810514134
aF7.981734036161068
aF43.17496246717968
aF102.56420254916442
aF120.28804386935639
aF8.724856091291455
aF12.830268182529228
aF9.783238553713119
aF27.74526305934933
aF31.09445684892879
aF52.832123648210434
aF164.910289566041
aF182.60954618366816
aF189.9691963026869
aF83.58043615556232
aF74.93343966295718
aF27.63657554135932
aF45.859535215107584
aF25.129638992602423
aF6.928650056327958
aF240.60415622673003
aF235.62727469935493
aF5.937548360242009
aF25.571653031489028
aF4.205075002627959
aF8.407993099180784
aF21.19791874727432
aF18.411592581152824
aF21.250173888327186
aF7.591639782878009
aF38.24062100072064
aF6.10397904452963
aF16.677321428923587
aF29.13372125560771
aF8.041847605375596
aF19.173026164984478
aF22.9556018494101
aF35.44741841503446
aF36.838843077113296
aF100.3749027419
aF104.61404922853112
aF222.48713623407005
aF105.4912101686062
aF12.792452739080671
aF3.0931203615002665
aF3.5784936296152003
aF7.581913280705745
aF1.192184526146854
aF29.403522458114942
aF69.57758687614174
aF32.66569304825171
aF61.61828712093035
aF55.95963037302875
aF35.34499203642822
aF40.80001045320684
aF13.782577288603278
aF34.08971337929839
aF7.320180107800619
aF40.788702540321246
aF5.042330660733602
aF6.470974015366183
aF21.21300594747302
aF21.054114875560696
aF48.130210033628714
aF15.687794817227335
aF58.671599968159384
aF49.19367303449354
aF49.8868164570609
aF21.793501965501246
aF6.593878262175366
aF17.51522660520892
aF4.149378158384654
aF11.488923267353302
aF8.041847605375596
aF8.041847605375596
aF60.27634385219777
aF64.80062405662946
aF66.63081706429426
aF50.277212902370344
aF54.176853509036185
aF4.902625645026185
aF17.523415796156666
aF38.169409089790655
aF16.6607113842661
aF23.143141496274996
aF28.753111715029277
aF30.957819951078708
aF43.079974777137885
aF31.620627946480163
aF2.005954451305906
aF30.895515958246463
aF138.21783336588712
aF203.01042937312837
aF192.98597877259903
aF189.68820202804886
aF241.2722657340662
aF325.3876790697093
aF14.973807865662
aF9.771017757536217
aF0.8801132886429326
aF5.883707107388806
aF16.159461713538565
aF12.502993165218856
aF39.268257177903564
aF62.505268310156886
aF34.812536115201354
aF76.86563687743158
aF146.65184598418426
aF134.77898865795333
aF204.01594295536646
aF1.8071669694087902
aF4.653375057346985
aF19.39333162333942
aF68.18672709178858
aF48.51824903207019
aF49.708575259032784
aF62.137139547333334
aF150.26718786191353
aF175.96755766510094
aF176.31782870964682
aF191.1500369601542
aF213.88840061606598
aF264.67513083753363
aF135.27806217643226
aF122.57475541012158
aF122.51085874175165
aF92.12780587263309
aF40.66300405391575
aF135.01751168498376
aF116.89216963639896
aF190.9844766109284
aF219.37836699337961
aF6.648514698221187
aF8.262661761369237
aF17.382045133165978
aF31.30623703990557
aF17.428087047203693
aF38.76237711445111
aF4.872907633841929
aF21.827243260181692
aF8.041847605375596
aF61.0067948133166
aF42.28917234965012
aF74.86115284635734
aF44.432028802471464
aF40.66300405391575
aF61.346579697300115
aF125.62879711863852
aF126.19204563454805
aF227.01286446878282
aF230.02729634891017
aF232.67950091646688
aF446.6206271453155
aF499.48163246224374
aF334.97232371439617
aF197.37251497618965
aF130.81687070995508
aF28.082456797196116
aF8.041847605375596
aF53.553777742725714
aF82.57687123903526
aF92.99463298109183
aF84.91586586682155
aF64.72992834547199
aF65.02874844287555
aF47.49189276587902
aF57.63621537315856
aF89.39395858062717
aF54.038533455572846
aF196.83414772157548
aF222.47155509032473
aF331.52369397741
aF333.18672901912385
aF364.02334775131345
aF322.016236819996
aF310.2402894394809
aF211.74757440583656
aF196.5604035887197
aF127.07944498354657
aF9.527793093621382
aF8.041847605375596
aF29.6200503980674
aF18.92127511859753
aF51.19468495336693
aF126.40036671212829
aF256.0229582347425
aF69.50653371052927
aF51.52362314222924
aF26.28541962544058
aF38.86720469765518
aF33.641903312694204
aF12.836924575906044
aF8.455213176825188
aF74.53564426866848
aF288.2688881209186
aF285.38867841271036
aF254.3054775966694
aF178.93918498158945
aF153.1248570768927
aF78.63761368522862
aF25.425424730421064
aF8.041847605375596
aF77.58469665451365
aF78.26060057986358
aF68.44823920661985
aF59.02635285475141
aF44.548335723671556
aF102.24012357444444
aF131.91412397143455
aF197.03593561379026
aF226.03099381540758
aF288.88651800009103
aF335.5703892942259
aF349.3736739985999
aF369.49116163535456
aF39.60171089214759
aF24.742356288874202
aF4.638984756352303
aF3.413516148260233
aF52.52785215461866
aF55.51649193218825
aF15.415906049768967
aF39.29114464216918
aF12.330012672255101
aF14.337683377714127
aF8.041847605375596
aF6.221108657980363
aF21.82712452744526
aF27.913180972334747
aF9.44079805945366
aF8.645341442844588
aF74.81488021581728
aF95.40336244530765
aF95.40336244530765
aF114.08282580662996
aF174.38740664983087
aF177.42799559658428
aF216.88474706622026
aF134.62519359928058
aF132.1690953270983
aF64.88104273684615
aF10.824098672747837
aF126.52085699121479
aF89.5322487776337
aF92.67392443125517
aF87.88596939516891
aF74.00018236684939
aF208.53700394047036
aF228.48810200967804
aF237.22050288744472
aF290.1535114684637
aF142.6801958122759
aF176.98646417796465
aF11.568458329679114
aF8.041847605375596
aF1.5189884665170792
aF4.388320369431221
aF112.9805236169219
aF100.95151346555852
aF114.72159258288949
aF79.99005033227141
aF35.05740159793701
aF7.660644145015121
aF60.196157429329205
aF62.60912228704253
aF48.637547267485154
aF30.90523501838405
aF6.256632888871212
aF235.64719161135113
aF82.52567538177884
aF9.022223122558064
aF7.495746697047753
aF5.884953504323605
aF8.788661619729789
aF6.167321438471861
aF15.805203693430604
aF37.563319161637196
aF65.29087543857472
aF50.10992374086051
aF81.98541677697348
aF76.89436833853517
aF110.49651510631749
aF34.50552926355708
aF5.4800073083792515
aF2.6240212314480442
aF39.802104396278374
aF45.38454418099291
aF58.737542670323215
aF38.71622760018549
aF9.561508763835237
aF52.17855150038804
aF37.942477610724374
aF224.23474075531985
aF198.889364947418
aF0.24865777652231794
aF0.40858472135539553
aF84.30525707757609
aF77.32612170440575
aF14.25908287908185
aF48.18074229438575
aF26.226784578656748
aF22.49650422543089
aF16.127929003641555
aF6.370926063917166
aF9.582207567290778
aF6.3692932950656385
aF19.11306017344911
aF37.27080816478663
aF7.3394319165743624
aF10.807316175282926
aF18.048115556602763
aF93.08772216233658
aF142.98724312483466
aF246.09915134037232
aF14.279895176989788
aF33.194439533610975
aF77.86736756613409
aF91.39919250707659
aF79.43381637633688
aF54.079466930140555
aF68.8350672314521
aF78.64094055439966
aF100.20253052720763
aF177.85270336783395
aa(dp2
I0
F333.09213553142547
sI1
F12.560408906317598
sI2
F58.88731182939685
sI3
F22.161643702179298
sI4
F166.46700460583577
sI5
F21.201761845134207
sI6
F83.0693709917558
sI7
F17.355872792340403
sI8
F106.65308002986342
sI9
F74.72670585253117
sI10
F31.65920733202182
sI11
F83.14852666554624
sI15
F21.706553038442497
sI16
F25.00450988638282
sI17
F53.92863742203273
sI21
F59.79732082414871
sI24
F81.16056098511322
sI28
F39.60979946893254
sI30
F77.27220832472062
sI31
F55.450418230998594
sI32
F18.622495804451624
sI38
F119.26943516017104
sI40
F26.389362106735014
sI42
F67.86867622256533
sI46
F103.36321142807651
sI47
F27.90394348975278
sI48
F48.684730950416245
sI49
F21.98797876097619
sI52
F31.64735447622371
sI53
F102.38991034086993
sI54
F58.389967459706526
sI56
F109.74390055621042
sI57
F130.6030012422828
sI58
F27.72408677525334
sI59
F135.9977646301292
sI60
F172.08128053471265
sI62
F138.9477437794566
sI63
F39.45655831374353
sI64
F171.45443414917023
sI66
F21.49406626123643
sI67
F136.2958156414925
sI68
F59.126511493702886
sI69
F52.1039332627204
sI70
F70.80710836569135
sI71
F27.77570889929676
sI72
F64.56912687881166
sI73
F77.57854197711822
sa.