(lp0
(lp1
F182.64974048075536
aF180.68844090686784
aF179.85035704894253
aF87.37117405338324
aF41.25730731960671
aF29.675663402885174
aF11.281108305438778
aF11.281108305438778
aF20.28790040064913
aF15.038261624330731
aF14.114324406646478
aF27.273893778465343
aF43.978241353535246
aF60.38685557674389
aF75.49835336825804
aF87.41026203862042
aF51.47962326409001
aF43.97017899121049
aF58.490588893076136
aF49.780715475910704
aF71.6085340521443
aF162.29391537592892
aF144.9789474185449
aF20.47435157684241
aF21.32046179651082
aF92.00019291953633
aF118.21996126789101
aF118.21996126789101
aF118.21996126789101
aF118.21996126789101
aF77.44358331077446
aF77.44358331077446
aF77.44358331077446
aF15.034622738576395
aF15.034622738576395
aF4.525748148273824
aF4.525748148273824
aF4.525748148273824
aF4.525748148273824
aF4.525748148273824
aF4.525748148273824
aF8.564268800123973
aF10.280432748842584
aF4.455212881071092
aF11.458355652204236
aF31.797180597533234
aF91.10296079626434
aF91.10296079626434
aF124.66778565305191
aF165.2932601572972
aF161.00271370501838
aF157.82348429447728
aF159.29597891945875
aF163.49564899856136
aF1020.3942992832905
aF979.1761182072247
aF985.0291929852584
aF881.6472215984609
aF871.5769380848149
aF832.4528608950191
aF732.9790810226319
aF724.1560568587322
aF723.3618841834767
aF531.3700151073477
aF464.753791851336
aF419.9597356036582
aF339.06685174058424
aF312.1269483896996
aF148.1812526934572
aF121.94565384938905
aF158.75909012716147
aF130.20814951776424
aF119.97127164600617
aF68.75246978803938
aF104.84250782780923
aF101.61532440012405
aF88.93937077635971
aF38.38941185368381
aF4.702799941942467
aF8.969632663161105
aF34.06387386343452
aF41.53579255063935
aF46.56830409741513
aF138.65761958985328
aF140.40066644110863
aF132.81525314845456
aF55.700033016639736
aF26.089270179292477
aF36.32593221054752
aF33.02817944120315
aF36.7474796222932
aF13.610816920127313
aF52.46174683065151
aF45.55522367393379
aF101.65183319872357
aF148.673989935709
aF119.7001543641823
aF98.29147825931922
aF65.65205093712086
aF75.49348462894548
aF33.50988949179558
aF5.403794444385799
aF25.50280491495068
aF62.19697588290004
aF47.69861195355623
aF5.939925665100725
aF26.824711705126543
aF66.66937507067698
aF67.14639801508557
aF377.1376901798942
aF381.0796857786215
aF345.4854119303981
aF335.5226264292601
aF322.5999729541993
aF263.97398749655474
aF217.60380071699439
aF165.0513110017756
aF176.56478468555198
aF163.4235361955029
aF69.54982120965417
aF13.426930313255953
aF16.55796849173999
aF16.260643161530876
aF103.59733113614259
aF38.2100088032909
aF13.624038682376668
aF29.16823833611339
aF66.48458711557343
aF28.15009195064983
aF44.75542764800244
aF22.027740151686544
aF22.030813524309902
aF8.94494582648109
aF29.36715276824896
aF10.302462488321034
aF52.25749419258843
aF15.921391775102519
aF38.0325076789287
aF27.35586159039894
aF59.67058629509531
aF9.350114384667913
aF37.40465601267202
aF27.432772201547042
aF21.661742733805735
aF40.55333236976657
aF27.299598559593857
aF78.05949327071278
aF70.71980267620165
aF25.73704728081853
aF8.480591500153727
aF79.40931268055328
aF45.748839428023444
aF39.64144365176436
aF52.425211424024155
aF110.77354286634161
aF63.163720348342196
aF77.80291409669616
aF43.665780413196856
aF97.1571001985309
aF132.35366790959625
aF171.87597865792083
aF200.79927119541796
aF229.14497563933134
aF267.9266517730365
aF386.2795791504325
aF400.90958382648404
aF483.3314252637512
aF530.6671278189687
aF601.2127462916884
aF631.1584159398301
aF559.0526381537703
aF558.4528214087549
aF496.0156001961779
aF370.37164225438886
aF33.4369881735654
aF51.574398315042984
aF77.71955296286168
aF38.756546247933564
aF7.251358909541516
aF30.759713476532657
aF198.64197232486782
aF211.6464859985761
aF239.90380597056955
aF242.23098428077066
aF245.80994534959086
aF245.78019126402813
aF245.7440586813691
aF10.793738813857386
aF11.96630241318036
aF11.585682280565255
aF12.927816131448173
aF11.468628601334695
aF71.5070983172451
aF71.78766381671424
aF71.81021992890811
aF74.04224833235283
aF219.41040386569404
aF147.52654527979965
aF219.29827938084813
aF180.02707538698724
aF99.28747369512018
aF42.083933351870634
aF195.806976248879
aF209.10354156760533
aF321.87914783936037
aF302.19709810858166
aF278.42175049432944
aF265.03803994811443
aF251.84769642410717
aF33.36009591352901
aF14.924759934879123
aF68.47728256393106
aF64.6423467646012
aF64.545003175559
aF105.0433924787215
aF170.29236609778124
aF170.3799375663392
aF155.62136495024762
aF51.260068664800606
aF30.881343363940232
aF106.90003552458272
aF171.97981456385796
aF235.362426902869
aF296.5422818527441
aF353.83576324004736
aF283.10906000186606
aF266.98898389156255
aF195.04111187485867
aF129.26819274944344
aF88.05422590396037
aF84.88978528288123
aF13.382775231226097
aF10.116925552146997
aF33.24831307354986
aF17.439754135505538
aF54.73015068288171
aF114.00919910593008
aF81.58417214367475
aF134.99057520246737
aF89.48861403450181
aF25.17914602434598
aF24.84684219909791
aF65.00176576106422
aF84.45295709065992
aF165.89836191157463
aF193.64840189914415
aF159.1214665383489
aF80.7275238525961
aF24.06037301437727
aF11.405272131310754
aF150.70229841094036
aF187.2359537483152
aF123.97911785939601
aF48.83053760318826
aF6.869786144752215
aF43.890415424049436
aF133.94913103663467
aF59.37686112617492
aF20.252541047685472
aF37.5896085876512
aF121.7267988174409
aF243.06774600852327
aF219.0637369996985
aF13.693969295051613
aF216.9116604819262
aF279.85911600571103
aF323.32505097702716
aF363.6352794831427
aF390.3587855846532
aF397.7195968628527
aF433.16704624783796
aF487.04691434037414
aF486.71590916058375
aF539.976120239881
aF535.391497940668
aF532.1525253302644
aF525.2142724679488
aF525.5405559772834
aF526.8676328935304
aF525.2696614943759
aF404.8963732778377
aF335.96877017859293
aF331.1563900355461
aF331.1563900355461
aF245.27159185425006
aF191.48063447800666
aF163.54020598083076
aF112.96879939537087
aF41.119968440352864
aF9.291850697791507
aF30.038108095362485
aF9.387656168519207
aF43.35684319832855
aF41.80776212318838
aF5.459317398336946
aF24.113123932141004
aF63.40168157322148
aF91.66298065107311
aF11.36614173216054
aF80.1538892979502
aF123.1063902748266
aF118.9237393059016
aF57.177353235341776
aF37.278342390886365
aF18.56596254477159
aF69.36546396450048
aF45.17942467750296
aF33.84791108749069
aF30.468594557436052
aF16.529845848420507
aF29.446690300732296
aF76.07151877894276
aF101.06108759781073
aF36.884630174202584
aF52.340863268124174
aF108.86859931773826
aF137.02895590502956
aF121.71241944333255
aF89.43446147657501
aF130.65468775383468
aF130.65468775383468
aF119.43829456656246
aF86.6999358270178
aF84.54077965220708
aF17.931929963328262
aF41.11524332313132
aF16.98142025406961
aF21.771980811765157
aF55.90383834106152
aF19.663343694427592
aF4.399729439749092
aF21.780924032406688
aF36.550129333189346
aF89.19888518345857
aF6.397561905311454
aF6.397561905311454
aF106.91876208612098
aF36.690828709524965
aF15.546338186984434
aF13.856509841749329
aF14.539922052222943
aF12.313663400416317
aF10.215949907482905
aF10.218119643696205
aF10.137121848835202
aF10.151359383497468
aF10.154695958422124
aF10.13299197366733
aF176.98266875108754
aF178.57533747691178
aF179.57415155159237
aF177.70493961484073
aF139.15633601566546
aF97.83711157236641
aF65.08425225053337
aF44.6243558831257
aF20.705251694284815
aF13.926825890754527
aF10.177306933454659
aF34.58150656281083
aF106.2428900415332
aF92.54344308376973
aF92.0518534061174
aF52.50103662640167
aF15.124687263697782
aF31.315870906974602
aF83.5498189687796
aF168.27493586955023
aF178.56483164188808
aF157.86580371052483
aF183.611793445422
aF169.1631723168203
aF143.29297629764423
aF154.13392786611223
aF126.49044493639022
aF94.21269755354608
aF91.01881223550781
aF121.09828539458009
aF161.44209205176378
aF159.81478476226025
aF118.26388435316373
aF116.74175738017834
aF148.0040095535023
aF120.77622973661036
aF101.40332315984645
aF96.37786771191867
aF11.824553083767189
aF16.5785922047551
aF16.641336971666888
aF21.737970394047267
aF25.59833319220301
aF54.195679975747915
aF23.05565737341811
aF25.104237984762754
aF12.894514256740102
aF45.30602566531675
aF68.18486280808587
aF29.72594245436433
aF50.87650786410801
aF123.6310986348872
aF160.25448707011148
aF158.60768086080753
aF160.06876213293242
aF160.86680535423773
aF160.82317366276615
aF160.4266309609367
aF43.06237049657376
aF43.37329242690363
aF42.68350100862266
aF43.7917370844544
aF100.86139498803968
aF100.80862519802888
aF49.99169826451384
aF29.576857976341675
aF17.676009875253335
aF20.890117120383028
aF20.705251694284815
aF18.034714810429982
aF13.044777366650138
aF41.89468301058906
aF51.63389491611536
aF24.051659816879365
aF47.49441535381926
aF72.06561651202576
aF87.02802583421598
aF87.97941955923464
aF132.683077635393
aF167.68055641933623
aF202.63347945853292
aF172.79705457057133
aF137.58246229762912
aF87.04082731977286
aF128.07509003265733
aF171.6723706850246
aF164.50602074945064
aF164.14817523509984
aF166.45597585517015
aF169.99436534880917
aF164.47721428433144
aF164.37162779341102
aF86.42392039091216
aF71.04444019943564
aF33.691013687128574
aF27.02955413704224
aF10.152850942364081
aF11.43561088744813
aF50.37891935819066
aF35.31882521624483
aF17.476137286112884
aF33.12944473577401
aF31.62013064549036
aF7.381710608638776
aF12.86840098438393
aF44.18768399556281
aF76.7915063617319
aF92.9362218679271
aF42.334942929008086
aF62.55725455379584
aF17.979142078084188
aF30.87793018718023
aF13.277918110205583
aF20.830637172191125
aF33.351338099726874
aF73.87938240580614
aF50.14647595211626
aF66.55489193096003
aF29.40905589980654
aF16.875672027605525
aF52.14591738873299
aF7.7191219110992595
aF20.736483677952545
aF71.95830667327104
aF116.48600816531473
aF158.37533055713683
aF119.70963237980426
aF83.39610567382154
aF46.04002609813574
aF24.221266686848608
aF16.763572180223107
aF30.098399428541516
aF57.50032899405896
aF28.219762509145905
aF46.83459812110356
aF30.76245174247328
aF10.34412650018062
aF23.32820667994164
aF58.12091102817433
aF20.998297389587936
aF22.80041492249361
aF11.815796091267092
aF31.018823422209213
aF22.20621497801836
aF6.48373206511238
aF36.252980386314086
aF87.93968332034179
aF43.40689133959535
aF18.847061571639838
aF23.44974808789816
aF7.920186608784786
aF13.410424642577421
aF22.799051852963125
aF24.64342962341497
aF21.749579303791325
aF22.094633744092203
aF21.81867654410446
aF12.785033873409557
aF11.844192306918925
aF11.080649799425695
aF10.938117599993266
aF11.156174101971152
aF11.85203148028678
aF11.748338188399934
aF11.702229963416048
aF11.812744221613427
aF11.9351838548534
aF32.37800849061812
aF32.346867911491884
aF32.346867911491884
aF11.656307570466259
aF3.234134354002157
aF14.171300188979473
aF13.059269933530484
aF4.372224813993834
aF10.35093052410112
aF20.056279814029303
aF20.056279814029303
aF41.83780749843334
aF44.12695406302352
aF24.633430795310822
aF11.606217797339278
aF10.713096716511663
aF5.355095723405273
aF20.02995571033047
aF22.981358703720844
aF49.52861900705856
aF9.615329279576306
aF14.037192876485351
aF14.471961479444223
aF9.661253904960715
aF16.48969761914776
aF16.48969761914776
aF11.165554742745993
aF11.165554742745993
aF56.77102770384271
aF19.59887920376371
aF18.417702893550835
aF6.393374638793988
aF34.14242585906925
aF49.30490731812978
aF79.66502674831274
aF70.74272385276406
aF95.34369772479523
aF95.34369772479523
aF123.53952069334278
aF116.8671108145429
aF118.9278350660055
aF157.04057465585313
aF192.87721438187054
aF176.1009859898256
aF176.1009859898256
aF153.67795986799223
aF136.22662267201758
aF116.03187114261944
aF98.58377605808587
aF66.52144153759693
aF59.4259287962015
aF40.6453753911566
aF23.362585268644633
aF16.2448464240134
aF13.27972303784541
aF23.65775206903401
aF47.93702154800248
aF77.64560501524537
aF90.48768055699402
aF125.9056801461364
aF125.9056801461364
aF158.72759434898393
aF176.10740064129456
aF176.10740064129456
aF176.10740064129456
aF176.10740064129456
aF208.47947758218368
aF180.4734964423448
aF153.89312898489544
aF157.9729429722703
aF157.9729429722703
aF121.81674864891056
aF147.42178079823424
aF108.90543107509144
aF104.31778011922616
aF57.84539104894079
aF13.137099210484262
aF16.382265435362452
aF25.184955465348498
aF14.444823429449556
aF15.340588400134303
aF10.80259290582904
aF16.030901416861454
aF23.724924099604344
aF20.12460734379482
aF30.66655338146249
aF26.014045687849926
aF21.852737346428118
aF53.91219299927848
aF28.789877410991405
aF20.60092334682153
aF35.853036201009665
aF54.554928658997696
aF96.86352230048644
aF96.86352230048644
aF63.98033171104123
aF36.90431769392165
aF9.852375315723423
aF12.544688469254822
aF12.722627837130162
aF32.612958204347564
aF19.87520086247491
aF37.98952448089557
aF78.4547112933576
aF64.18016879691018
aF43.34347059848149
aF32.838703507143364
aF23.097236722531196
aF33.48591501643793
aF12.838285666126298
aF12.837870277581398
aF49.20659172907793
aF55.36722932902851
aF40.184426322255604
aF25.22006934139993
aF25.580958983398943
aF31.982167234242503
aF49.0333233171361
aF73.90686949878405
aF101.1718163841308
aF63.92671914159762
aF43.28350878303311
aF43.28350878303311
aF6.3896701225025625
aF23.467051180519736
aF30.654881749995425
aF48.36617424829108
aF7.4914922911368
aF32.62779411765081
aF17.68278406081751
aF27.26901739445244
aF23.729066122371925
aF19.71641683000063
aF24.32388991516955
aF17.399065192249193
aF49.59066475002835
aF39.973906890032936
aF16.254065316893488
aF19.807895006312936
aF14.720140947618095
aF21.033938006558664
aF52.5076998590657
aF38.08191417929856
aF12.8718395505414
aF77.75711599381879
aF72.04701232358806
aF109.16145335219758
aF95.86120576862811
aF92.22982752084661
aF92.22982752084661
aF50.16458933726904
aF24.0266244620887
aF23.034883479578045
aF10.56253736001141
aF37.25795242844589
aF27.42030083965917
aF11.736640469493347
aF16.31889140017702
aF28.598854731194127
aF50.44118619208555
aF113.2954540657511
aF156.17570437093246
aF185.38782234451045
aF188.4992207696593
aF195.51596058592878
aF198.78721020194794
aF222.9275524781397
aF217.63286337306482
aF257.0472233194213
aF281.7168544919814
aF279.21882362516897
aF261.7399437259913
aF252.62957445257112
aF283.7054846841611
aF292.28849335253176
aF296.47254364835635
aF310.28642041402327
aF345.83127371145974
aF352.8910625470402
aF377.90517459085873
aF455.78690983405164
aF496.98584342460265
aF513.0087241567787
aF513.0087241567787
aF531.2072786583825
aF555.8995420041407
aF555.8995420041407
aF588.5593988011668
aF589.6265622673305
aF590.1671938750179
aF587.0317024990543
aF585.26513453809
aF584.8922039430805
aF644.2235231582856
aF648.1736230290065
aF647.2423319642736
aF661.9910649030346
aF653.7767256331167
aF632.2269862980729
aF624.3310041432217
aF613.5553902287937
aF606.3214168978262
aF616.5125350039139
aF613.2725573013571
aF98.00457468484588
aF112.93854525204029
aF128.68152815104202
aF152.3127397947431
aF167.67382261045114
aF126.19063413603129
aF143.00452462203177
aF101.77929138944437
aF56.69765819642352
aF31.294541669913563
aF80.95314347419519
aF83.01809827465691
aF81.26984961968527
aF64.11533978090581
aF64.62116857467902
aF64.7213581882365
aF65.02096260007293
aF66.51922731208873
aF240.71829799557347
aF213.94486613801567
aF224.31945708530813
aF237.26262028923315
aF239.84955162672085
aF243.83711935261317
aF256.9634688374005
aF233.39960159009783
aF231.80474459371405
aF231.80474459371405
aF237.67022911905056
aF174.4247698691321
aF159.0345369926233
aF147.85821647838208
aF147.85821647838208
aF127.99496502682773
aF102.97961812721232
aF85.77397861041791
aF85.77397861041791
aF77.36440661145167
aF72.46375407959039
aF74.1419095269957
aF82.56765274325205
aF11.457594368859297
aF92.12624220707568
aF114.1946516487988
aF135.56677847531884
aF107.98251690095974
aF78.67066694770112
aF31.457710724515493
aF13.14181014080377
aF59.6404194094726
aF91.50790018009933
aF70.06160939680097
aF55.704015378911976
aF48.07321179415098
aF43.99407812334126
aF40.318030993954466
aF40.318030993954466
aF33.78586219399629
aF44.899874967027486
aF8.93368827490484
aF31.18588968035126
aF9.454094056693126
aF10.339844790161742
aF5.392371780277447
aF22.557264741959052
aF3.7435215375393662
aF17.58330719400692
aF4.88490963743799
aF32.60084545861156
aF52.91598207336448
aF36.802825220202386
aF18.92540608564338
aF15.317954789905519
aF33.85952194290802
aF43.907460688798714
aF17.07522318040448
aF15.399514043522995
aF62.18045534332538
aF87.22990677340383
aF106.55548679420727
aF147.52969188235943
aF178.6460110978522
aF197.71885373086096
aF236.89507974653625
aF274.8731057392245
aF247.5003669926625
aF284.88529910984346
aF274.5519221570103
aF257.409022425703
aF221.59259268172303
aF204.69353612887775
aF190.79518322174573
aF177.27574727511634
aF177.27574727511634
aF165.99447735408324
aF105.83769709227414
aF97.27804738188085
aF81.55551487324023
aF49.95850758409118
aF29.136976750252156
aF20.868329662428494
aF20.91581968940422
aF37.2601236771415
aF18.383116312859418
aF27.45125086007454
aF42.21838831416891
aF50.54987004688853
aF94.82729709964457
aF104.20499206880667
aF82.5946349537531
aF69.15866738299603
aF44.1732754648631
aF13.792409639280965
aF23.135552461756046
aF6.455868402815666
aF7.620670803236506
aF25.964433679478894
aF16.472530310123986
aF7.9040502664610655
aF16.54428874825624
aF1.7908819250344619
aF13.161226978045589
aF5.239428891177442
aF5.82907305614734
aF6.397561905311454
aF6.397561905311454
aF6.397561905311454
aF28.05887529082038
aF32.55565482156163
aF14.432185536424472
aF32.29774663302789
aF17.176247747703137
aF12.104454407431554
aF25.036721609863
aF42.52292100748281
aF26.38058899330056
aF20.022479894616954
aF6.568928424606552
aF28.906817236877345
aF20.51059748903663
aF28.604915366535923
aF42.757535259197994
aF6.20643578870095
aF17.37299827008609
aF55.37551011156795
aF46.35913218822342
aF21.28512240609477
aF14.36784037844804
aF20.52819582774043
aF42.2624994213642
aF51.24560787175227
aF79.0534223610326
aF93.66610668088818
aF119.73223080261484
aF119.73223080261484
aF138.4606549312319
aF174.4220118833869
aF203.33747050309654
aF203.33747050309654
aF249.5433702118385
aF256.2491932733887
aF275.737100284268
aF293.68248569577014
aF309.3256464734182
aF323.62497357925173
aF329.6232401819454
aF340.1557353146562
aF323.56178702530786
aF277.2505398146295
aF232.62343063147858
aF199.56615824926345
aF184.02163447486558
aF173.22226501448517
aF140.63399424150572
aF114.49873803000457
aF128.723201869487
aF147.91274210314597
aF162.49977694107747
aF168.398277948794
aF147.1889874716139
aF133.87414787110595
aF109.45547474229272
aF66.91550931587108
aF65.49818737008108
aF73.81819403258935
aF63.212418634388705
aF14.914183145409858
aF8.159796807018425
aF25.104203181031465
aF15.777823788845524
aF20.75248634098748
aF18.04902275318364
aF24.70086977306095
aF43.25429486612929
aF51.59708441899786
aF41.42927376289377
aF19.176960605583293
aF19.176960605583293
aF1.748440393875334
aF27.530879767555053
aF5.54437549353708
aF13.647753752145338
aF12.886801574897577
aF28.21947081578437
aF35.007542634333575
aF7.3412654557357
aF16.158030042751566
aF21.71929475914683
aF18.878050572574253
aF18.273785958170166
aF71.57303575589947
aF109.84799768125984
aF81.95136848406673
aF107.87387399720161
aF126.58994760210422
aF119.82704663442831
aF111.04384378462994
aF105.91881275781783
aF83.66061693184696
aF70.23519513145132
aF45.86093889600774
aF34.3214656034239
aF18.807212398946355
aF18.834434589472608
aF18.841263515542135
aF11.490668202976357
aF11.289667250817025
aF13.316836034283074
aF15.568579177859826
aF20.906842983094194
aF7.436482176518695
aF1.5407763152078777
aF6.791019130765376
aF18.371728999119686
aF33.45482696342503
aF39.126679607079375
aF44.91834812860553
aF62.84720852846763
aF64.50803336024255
aF60.67444531934326
aF72.8394177143711
aF94.8258246095273
aF101.70802222526113
aF114.6783753915984
aF128.85634252597134
aF176.1062978774554
aF180.50697458951004
aF184.92030936902387
aF184.92030936902387
aF184.92030936902387
aF184.92030936902387
aF243.8870917904119
aF243.8870917904119
aF274.35650287771233
aF287.53563932455177
aF293.90614676277187
aF301.251315104387
aF325.2808867130959
aF381.20027872374243
aF381.20027872374243
aF381.20027872374243
aF381.20027872374243
aF424.27912881928785
aF430.59803037552126
aF456.7813368647273
aF456.7813368647273
aF456.7813368647273
aF456.7813368647273
aF538.6927161846082
aF554.3931162618317
aF574.5385357248075
aF578.7959454100196
aF581.9240431868944
aF584.4875417442877
aF584.8199201651184
aF617.7974338901314
aF627.8808580612457
aF607.0525303267049
aF613.060058247537
aF657.1723379681546
aF664.5424924502133
aF668.0085504736792
aF672.0031333986357
aF673.3658268854257
aF691.5551291574731
aF689.9246470717251
aF691.5443578775552
aF693.1385386271056
aF693.1385386271056
aF693.1385386271056
aF172.7327883394275
aF133.54930976676982
aF118.84024512181219
aF74.89787301671453
aF70.66210735259999
aF70.66210735259999
aF19.07937656739276
aF33.48475819963679
aF17.194647356683305
aF23.971053633205894
aF46.364581960754755
aF46.364581960754755
aF77.2449517634264
aF118.3872816995961
aF160.46968109351627
aF160.58699045667512
aF55.50533308930289
aF55.50533308930289
aF12.863214496532361
aF9.096177235642562
aF6.446848859597153
aF31.12305179524634
aF31.12305179524634
aF49.84812000298262
aF109.86451013857332
aF129.34970453126763
aF129.34970453126763
aF144.5479297544864
aF176.84945060875086
aF181.66092594170607
aF188.8940482762655
aF188.8940482762655
aF153.53203142990472
aF162.66085653990567
aF138.02571604936202
aF141.78845123960733
aF118.540230886649
aF67.8095337423576
aF51.422828022173206
aF23.73035071197611
aF5.839973453490208
aF34.4761881210141
aF46.27563980234258
aF89.18923464975522
aF131.64762954048456
aF164.2537174825687
aF152.44494403309412
aF152.44494403309412
aF108.38211373192483
aF98.49656494688404
aF76.38682803596997
aF76.38682803596997
aF58.817178012499845
aF60.268520361780816
aF61.624049103821804
aF57.78527413220973
aF57.78527413220973
aF12.973157633911457
aF121.64454832673209
aF120.41479330887455
aF15.228516833058157
aF7.184540291129765
aF11.67195960792739
aF7.184540291129765
aF13.756786118828277
aF8.924160890833857
aF7.184540291129765
aF12.237244043277553
aF12.237244043277553
aF25.06511260542804
aF19.535425920048233
aF12.450143829489013
aF66.33614601859152
aF51.80780941460083
aF51.80780941460083
aF23.289629523570078
aF11.658420994106104
aF9.057958254910508
aF24.708860763272035
aF19.823192592389887
aF32.34096010164716
aF72.96784474043505
aF72.96784474043505
aF14.01165745585099
aF101.93063738938754
aF21.744477891260697
aF14.060453823966201
aF29.935871854584594
aF40.97668573700063
aF40.97668573700063
aF34.44330824310749
aF34.79717207939371
aF59.27430661348632
aF74.2297359450915
aF90.14279584784785
aF97.7639899947168
aF101.74090044129724
aF100.42200238484703
aF100.42200238484703
aF104.32931661793765
aF97.66453608926903
aF99.47857102133172
aF116.77176789402735
aF120.84498560843785
aF95.80823692810864
aF98.88355786680144
aF120.84498560843785
aF135.48034762920108
aF133.83773198051233
aF116.00810071249583
aF106.67452429730355
aF97.5408020268958
aF72.23043324063443
aF60.29112176563889
aF40.60665070712709
aF34.67589461389993
aF27.45401798614035
aF26.599958204321293
aF11.34257583134704
aF11.966863004421356
aF13.449302640755178
aF14.888293486151197
aF16.415669433299232
aF76.55420869694484
aF87.46473382124775
aF87.61056497227091
aF105.13581144082319
aF146.30290255788367
aF142.8148129252149
aF146.75250046274195
aF154.49385752437385
aF169.59355960115138
aF185.8187540046036
aF185.89885362586983
aF211.1229576841375
aF213.2458892087858
aF234.23970993394627
aF245.8513183044095
aF249.5427545388605
aF261.41832846463575
aF278.1033078716993
aF294.54442437308785
aF294.54442437308785
aF294.54442437308785
aF294.54442437308785
aF294.54442437308785
aF294.54442437308785
aF362.8836806182405
aF367.4661906157502
aF380.7692318529474
aF384.0896402963481
aF396.4389678052493
aF399.7748678639652
aF420.75797780900035
aF422.1681977995787
aF423.56808398004415
aF446.5527651136727
aF462.711430226102
aF482.35543981525365
aF492.2427670163614
aF503.348215366537
aF513.1205210603124
aF535.4814640558269
aF538.8638436642171
aF548.9058158183439
aF120.62542241681524
aF126.08184357557877
aF135.33572773868897
aF120.48467883791521
aF120.48467883791521
aF120.48467883791521
aF120.48467883791521
aF120.48467883791521
aF122.62838995620513
aF138.32299253502754
aF147.9444164690119
aF170.82999175184213
aF198.77918561832587
aF223.01235744514793
aF246.29872040659941
aF264.0155312792744
aF283.21813613584436
aF311.973307452619
aF332.20452109428953
aF284.4918313318037
aF230.9681168181165
aF204.68884821370082
aF161.216989848515
aF99.58913563197508
aF42.151630970657756
aF41.69685653808648
aF38.49292504658833
aF28.732600725469094
aF26.617912572135783
aF41.49551671257991
aF49.998284251786686
aF13.30780208468422
aF14.527596880845723
aF55.61372925463419
aF31.702089481154946
aF22.874110312220502
aF6.9759725511484625
aF3.944101450484908
aF3.954488349458815
aF7.33428721842315
aF8.76953726340184
aF11.435016724242756
aF12.39190364110663
aF11.002557895599624
aF10.937424179793721
aF10.475114312184365
aF7.969645452593353
aF10.355817552269281
aF9.07406827845177
aF6.2166800798230595
aF5.334024228723062
aF5.215323133739091
aF5.221318662085971
aF6.641177022287586
aF20.392656377747745
aF60.40700183279694
aF86.56591987741714
aF21.62188432987382
aF94.15422316448422
aF93.91561421351312
aF93.9115031327994
aF93.91033115420134
aF39.20175395681643
aF21.548972787723084
aF15.957594707463967
aF27.724043161269908
aF28.152864360001015
aF22.399908551859493
aF79.90116887296007
aF81.65092684197927
aF107.05932166903656
aF130.4351354725653
aF63.13855625833752
aF63.13855625833752
aF11.873638141430556
aF12.237244043277553
aF14.862425177849344
aF13.90456332610997
aF17.668683572220417
aF18.403154502701486
aF18.403154502701486
aF18.403154502701486
aF48.642001978349064
aF40.445622085233275
aF40.445622085233275
aF45.73872789276601
aF45.73872789276601
aF3.885032067772428
aF2.433653471116473
aF2.433653471116473
aF7.536611729158088
aF45.497749119695115
aF88.77403914391209
aF85.1846015205047
aF131.46223996098365
aF169.1875991446448
aF173.85423978433505
aF173.85423978433505
aF139.90876131668486
aF117.80716137043011
aF111.6120990075612
aF93.33251592308456
aF93.33251592308456
aF61.06802060569102
aF23.48972611163584
aF23.48972611163584
aF21.390707060157343
aF21.390707060157343
aF33.25046531118743
aF36.45070607219429
aF44.15659998570799
aF69.497166859828
aF87.60222943001351
aF91.22537672392268
aF111.65448776851814
aF141.1066171699422
aF141.1066171699422
aF104.90384424891232
aF62.85384995047362
aF14.693095140192126
aF26.431796231281698
aF6.908081869013387
aF4.975749833956679
aF9.212117528599265
aF9.212117528599265
aF43.1527151137418
aF29.170640355592784
aF7.827564269824436
aF20.686512347298624
aF33.96916822123895
aF13.172890222640763
aF10.770059478598476
aF21.85635147196783
aF48.68610316719955
aF51.30447191162584
aF79.07266729382923
aF80.53313252935106
aF112.91306993307248
aF122.38914899894466
aF133.1823411169598
aF118.35826908753864
aF90.04463790535955
aF80.1682839194372
aF55.63179480199123
aF33.27416094585587
aF33.20769373235282
aF33.20769373235282
aF31.596592459426738
aF13.67601922183537
aF11.598202436724389
aF11.598202436724389
aF11.598202436724389
aF11.598202436724389
aF11.598202436724389
aF11.598202436724389
aF11.598202436724389
aF59.67263710446976
aF68.47699241612406
aF64.11479226016033
aF58.06007160946335
aF52.59873848143821
aF69.73789575711216
aF72.24221687992384
aF72.04762310324513
aF71.61099237982755
aF71.96571616876469
aF15.831985832781102
aF11.646200892983241
aF2.767013255554157
aF14.941318911960343
aF33.472380154922284
aF18.637408592246796
aF18.607423728783612
aF18.607423728783612
aF22.8008708079154
aF20.17360481303967
aF52.378966108995954
aF73.32600622291878
aF96.69258538437168
aF114.65015471780023
aF122.86995817765923
aF140.24285311773085
aF110.03954348633329
aF78.23915548432042
aF15.845522067031695
aF9.584382171942304
aF15.688237388474118
aF40.094123335092256
aF76.29130701905318
aF112.71409481616355
aF113.5543814499079
aF104.79900847267008
aF75.49384132873443
aF58.612052213107816
aF40.85263459685494
aF24.242962642155835
aF17.553049434265468
aF16.826153312839033
aF32.25680038183247
aF45.8419712137796
aF78.54938645740019
aF104.97320955226466
aF104.97320955226466
aF136.59789542747254
aF146.03387505298943
aF111.98229710379464
aF118.7381392837466
aF90.60684774700367
aF41.52767104606883
aF49.77168814044248
aF39.44187594608026
aF23.368175046038793
aF31.749687334537782
aF46.12013412987792
aF50.45593944508377
aF21.157853511603054
aF3.4394348586024313
aF6.559741858575876
aF10.692009139985574
aF4.997070697954831
aF6.188625219760019
aF6.635371191690939
aF11.173650463468014
aF11.014928025918318
aF11.15497504458742
aF11.76131273966749
aF13.561565131270394
aF13.561565131270394
aF13.552997101091046
aF13.552997101091046
aF13.552997101091046
aF13.528154458452066
aF13.528154458452066
aF13.533006228664386
aF13.533006228664386
aF13.537723503185715
aF13.544859756525948
aF13.350794202370713
aF13.348276663655538
aF13.347067251611403
aF13.347067251611403
aF12.754365999851808
aF12.754256368338943
aF12.777763365502567
aF12.809603321871958
aF12.809603321871958
aF12.809603321871958
aF17.49336051267043
aF17.492176402908633
aF17.492176402908633
aF36.1625520662024
aF36.36232580238801
aF36.617115872695145
aF101.1074568651784
aF124.72372816035194
aF111.77043661664653
aF86.99350842450015
aF58.69680364604998
aF9.586076746528219
aF27.337545084937368
aF13.473706762164575
aF23.54031585510611
aF79.24363674210085
aF13.630784325815208
aF39.644532985682794
aF69.68908397591056
aF117.64449266213467
aF120.80491630695312
aF72.08410159682323
aF80.07678937494292
aF14.995136348625676
aF13.794576700715224
aF29.76853218513948
aF26.511892424752315
aF27.186860671057183
aF18.576071815427614
aF12.846495370023927
aF10.87418362670747
aF30.4637004665885
aF30.4637004665885
aF30.4637004665885
aF30.4637004665885
aF63.016704424837904
aF70.87884383870303
aF83.01252682499255
aF106.64761597177827
aF130.97647074929668
aF139.53366390609236
aF139.27671531658376
aF139.27671531658376
aF171.00007971862397
aF188.92240594612113
aF72.639105456604
aF60.901155032796574
aF42.83948043290928
aF34.03375754218457
aF17.795884002588014
aF15.249998456319068
aF19.76018188178399
aF26.297005037053054
aF26.297005037053054
aF31.253654899959862
aF30.5067128651194
aF21.28360610018183
aF19.629599938874478
aF19.795334930864957
aF67.89338142203695
aF75.35974662828565
aF17.726124264292768
aF17.726124264292768
aF40.37321411972559
aF69.27740105839757
aF93.27268008641312
aF114.98281822676744
aF125.01672521644585
aF154.791755784347
aF191.41004040547287
aF232.2516213701228
aF223.59883449016496
aF199.77218873921726
aF172.42378229660122
aF156.02180153557268
aF149.0654984170524
aF116.4464616917777
aF96.11338300722642
aF58.4668711981259
aF51.67239286066454
aF41.79362501132397
aF20.09733641741058
aF12.61570107876262
aF14.666299937916275
aF39.6515089727964
aF39.6515089727964
aF65.46977034652991
aF83.54918787428541
aF102.29053404831305
aF58.90577198639594
aF33.434708178893636
aF72.54271636994693
aF41.788692436382064
aF19.3502201659045
aF10.161507449301881
aF21.133778119704147
aF28.110322313420347
aF161.87882204691
aF155.6367222951378
aF156.02986424424006
aF101.49407214732167
aF74.19224085119298
aF33.091989267992346
aF2.3063307393692325
aF17.000670862427754
aF26.07968682234363
aF7.813463384469999
aF5.1317086926171855
aF53.80111640530244
aF127.64574043724146
aF160.10640632762048
aF126.39322271793394
aF129.10510155479432
aF148.57460059300502
aF102.08265203865042
aF14.447661880885164
aF29.594307588707252
aF13.142249391073298
aF38.900642110142
aF59.725748111000485
aF42.97372696203519
aF30.311430594917955
aF10.197719184771554
aF50.96694500848773
aF81.45607884244399
aF159.07320825180238
aF172.0184221386506
aF281.7489549121027
aF285.93459945630144
aF240.89737315880177
aF240.89737315880177
aF169.9596100254706
aF107.79175768733359
aF85.01114941459396
aF39.93972049933604
aF24.63505408362862
aF66.14103725807517
aF70.24462002265616
aF144.88022365558396
aF153.95241945802124
aF132.45733907246893
aF128.13926293564555
aF121.08312298067352
aF21.33478130988469
aF53.64076537903887
aF76.59857198210389
aF57.61825138847283
aF15.388041953018753
aF14.106838434052415
aF5.729216308013752
aF47.20540579841833
aF20.120726955931264
aF53.94086986426186
aF58.09198795804099
aF11.778958253376084
aF12.36533148886229
aF31.580181198136646
aF63.683720367887645
aF38.15238612157714
aF24.189050894211526
aF22.057726081592012
aF74.87725540580117
aF22.064911323737935
aF10.172228710992254
aF10.172228710992254
aF66.35373591247541
aF125.48065942989211
aF12.4450863657421
aF27.61187056741727
aF27.61187056741727
aF73.5546215365904
aF71.52909084361536
aF86.85326236339647
aF60.43165538134369
aF21.121512050013916
aF17.500791693700783
aF8.606269627879191
aF6.410731068405028
aF50.86708496271484
aF52.27598652904334
aF74.2457245147983
aF38.50938103256941
aF18.03707207956495
aF21.39382127413401
aF11.052072253811811
aF5.3637658887590725
aF16.715169793495985
aF19.379545983389875
aF15.862136741476057
aF79.07612839535552
aF31.37825414358285
aF90.60648533935792
aF89.72697753175855
aF89.72697753175855
aF102.3897475928074
aF106.73217296905779
aF106.73217296905779
aF183.31702156729668
aF209.2387048956441
aF209.9027993685721
aF215.59556150726408
aF227.8835043657933
aF232.78346535326097
aF251.90023379258514
aF252.07139552129738
aF252.56541957994165
aF256.1870848540874
aF268.1635147643615
aF4.220836955719519
aF37.0574049263558
aF59.43249646260235
aF37.107026669421664
aF21.572335522443144
aF12.384891558280406
aF56.762081010239676
aF31.082547353679914
aF64.38353130226982
aF97.15886347136981
aF127.4011314721799
aF124.31047398595753
aF124.53559145971383
aF134.1746281913499
aF122.10540558185392
aF118.93683106686804
aF108.32823710256334
aF39.616348729120254
aF20.628965520677255
aF15.990957111192802
aF35.68199622079463
aF7.0291337131348035
aF9.145463730658053
aF23.233640089766006
aF39.767272868476596
aF87.63035873912237
aF17.6421434497256
aF16.87877386968259
aF13.133114731715972
aF80.17777816015868
aF76.37877761340825
aF14.948397144581799
aF79.73398114577832
aF74.16543062024873
aF71.70702761772773
aF70.35143715651517
aF28.378419333678966
aF49.88031099392594
aF56.10683469946927
aF51.61429915887109
aF28.892155452825243
aF20.072778037460832
aF16.043797087659538
aF37.36226411089373
aF3.9622486729972444
aF18.44105625478949
aF32.833020417476604
aF19.66330610237005
aF21.614359959810496
aF4.051328710530404
aF18.3671454995114
aF29.004017412230308
aF16.44877207022286
aF12.523326682843434
aF13.58651803491724
aF38.86551208658584
aF19.258234322389903
aF22.920507542740754
aF49.34926780272097
aF18.769334544553487
aF15.70153949186433
aF12.939095766965535
aF9.022262521180163
aF53.04338670403676
aF13.328842950958531
aF48.933644783193564
aF61.6175247828285
aF27.918398209054235
aF16.09704688878683
aF14.308207784482713
aF42.21403824751789
aF14.020240266306127
aF20.730144322005795
aF35.62293661687761
aF29.36329916115518
aF29.36329916115518
aF185.2732329596431
aF187.86532519490376
aF244.9237191297424
aF241.2696975401742
aF268.968401442559
aF336.5974702900817
aF70.2004415106481
aF31.703335095253102
aF30.754842743281213
aF27.29488199792673
aF58.490588893076136
aF75.64315102676136
aF78.29609347700392
aF78.29609347700392
aF45.978939968399715
aF23.872003834486296
aF67.40462889082566
aF115.05566885751993
aF104.03082597807061
aF66.52692109560307
aF71.29344557375074
aF67.77734118396012
aF60.89989918566413
aF50.20926440554316
aF54.35390573275194
aF63.6717182883399
aF79.24363674210085
aF49.64904696825974
aF45.01583170151867
aF12.20680364935249
aF15.06262710059035
aF15.001781206227387
aF21.959777207202855
aF24.928864641256318
aF53.87596912785156
aF62.57518016496442
aF87.11958950892274
aF201.58628867173604
aF69.3897004111547
aF29.126415825110943
aF50.99159368936529
aF9.273706335374506
aF11.64793164606336
aF24.726851347145764
aF25.939804926374734
aF41.93060381202136
aF7.845774573028099
aF12.239161287199522
aF48.943909017305884
aF36.99688149962661
aF104.34863663717053
aF136.76681094812992
aF202.1501896472808
aF234.67713749551888
aF260.4695955048669
aF104.74702202246668
aF129.39513862343938
aF80.94112982724756
aF88.01884482836799
aF36.8272942550668
aF33.60605411055585
aF22.972243864813066
aF5.641355492145561
aF53.757184468082606
aF19.132436292167945
aF89.19573658125216
aF92.9593061704638
aF49.158300903060734
aF57.02045089384244
aF47.92452985014918
aF64.96451106224288
aF60.17961287270345
aF42.21403824751789
aF8.727504373350401
aF12.239161287199522
aF149.47836270909085
aF174.88669899822884
aF180.11068209692178
aF150.573918195861
aF159.40250972302056
aF306.9279103805792
aF305.70807546583154
aF280.57948602278265
aF284.68088823130046
aF248.73892739570888
aF194.594166082855
aF133.2686282428075
aF89.61852976009095
aF37.19505644476517
aF37.069179826852825
aF15.845522067031695
aF45.55522367393379
aF133.23483193001925
aF133.45109167580048
aF175.17848111605286
aF63.97745756904909
aF60.35031910867199
aF53.755944561893934
aF68.73534744569889
aF12.846282571910397
aF17.94001911866888
aF63.83168269608297
aF18.095117753487862
aF40.751728737478984
aF28.223944648789974
aF15.960167442133264
aF31.072151373461327
aF27.467616361427638
aF17.684481737347642
aF43.05187294999012
aF62.16335449315682
aF57.61018429316715
aF19.4270113671267
aF24.992569557356436
aF42.23426900512603
aF79.08853188329995
aF101.38902308489588
aF100.44568731413729
aF104.1364920398149
aF112.63015699612002
aF128.30681497281117
aF183.19286366429117
aF48.366151235242704
aF33.164275309183026
aF23.544079797346413
aF54.22828219701239
aF10.622317324605355
aF35.87414429147385
aF47.06573809104292
aF79.98690570468685
aF78.9691681798577
aF154.89743540627273
aF177.00493642126926
aF248.17550844617506
aF240.86290714697887
aF97.59721768659867
aF71.33132729342675
aF64.00227650991201
aF47.08237901071701
aF15.527541567456224
aF24.651668789960652
aF14.890244727472044
aF20.66122460204096
aF94.19384901294835
aF132.01489987914758
aF169.09729135671668
aF551.1074424963845
aF558.4789245541642
aF517.2892814806817
aF469.69477017568784
aF332.12104548634665
aF210.72207372894744
aF185.4842187863292
aF174.49265380139684
aF19.770537657320467
aF19.89654202754448
aF30.4637004665885
aF30.4637004665885
aF77.29387452335659
aF37.55105366848377
aF91.6679656970714
aF53.783736573395565
aF34.335207289249645
aF5.044252992848069
aF47.0765521345497
aF33.27717359811918
aF13.111182440921661
aF57.3894568705875
aF102.19163571427538
aF86.44864183068887
aF121.19671117405278
aF137.95953944109522
aF164.09104197775557
aF84.42920738283283
aF50.7597433035095
aF7.772050180447302
aF74.70470922854656
aF80.10278623626948
aF36.73087794022317
aF15.929269902066377
aF22.577242986703858
aF12.239161287199522
aF181.40810711546584
aF180.4180821363563
aF197.1392972395471
aF199.27072804272746
aF198.35833582245405
aF201.6745641774785
aF214.62408890944428
aF231.97759426467186
aF256.12014287696474
aF270.6922910799652
aF338.6124065194343
aF274.67842221514155
aF213.08980557265392
aF97.76246889258971
aF60.148962492919104
aF27.922669161278613
aF78.23915548432042
aF56.55370834384693
aF101.272547626205
aF167.54007030204133
aF318.1151413734742
aF369.73227220794
aF14.070247589440083
aF20.321361518443158
aF5.631612414672586
aF17.75828272351374
aF16.055295666169446
aF9.516903743592907
aF47.255359007188
aF51.53555999295949
aF200.73848348402058
aF197.8933524677915
aF142.31584630426332
aF119.57796970833853
aF53.07664390656647
aF14.202297117395347
aF8.651532953975527
aF76.55913691503648
aF74.13348978959003
aF135.2978500815597
aF165.1361561409164
aF135.46583187126365
aF86.36352534839243
aF58.6953077569306
aF72.63128860531901
aF64.8569580968258
aF91.41423306641379
aF152.0815110775467
aF191.22070650334362
aF204.56447830513508
aF195.35092802267567
aF71.21967234913936
aF72.08135305317936
aF71.31600060622262
aF72.03861762368027
aF16.755001083115364
aF27.03625505643166
aF60.44119149745052
aF36.7921949513395
aF34.916944692545705
aF11.70851077258891
aF15.845522067031695
aF91.63953819379164
aF108.52650432538265
aF182.14187711683238
aF219.3877189063523
aF55.640339140992566
aF73.82552919716842
aF111.87728020306128
aF129.09769976832263
aF172.6272617622181
aF198.81668709193266
aF208.53695831290378
aF155.96065132951398
aF79.5202237542416
aF75.28194912028454
aF58.93882581327116
aF48.4584244388201
aF56.93687802468991
aF66.83434497862987
aF43.922540766819886
aF26.855811499107237
aF31.59300875207889
aF39.148390154364215
aF43.57749546639967
aF131.96166115296313
aF157.59673273064593
aF131.9993550457919
aF124.36114934291484
aF58.46740989210032
aF40.69560811648774
aF15.06262710059035
aF39.543540032311746
aF92.29755210112873
aF118.91431979770681
aF117.76592899209064
aF212.3833826454918
aF217.2630726388087
aF241.670207484887
aF257.259131439453
aF153.8012596684097
aF132.9787119628454
aF51.5919179396741
aF13.354898198557482
aF14.271465351525228
aF24.39542883185121
aF229.04088320120493
aF232.1468276046128
aF252.83634511961793
aF219.7256587808105
aF65.43863350024519
aF28.576376061364293
aF28.675593085324344
aF29.985775137963593
aF93.05204950344829
aF134.59254621013966
aF62.70796307650958
aF1.7172201715352675
aF20.89510912088608
aF12.405326433043045
aF230.65962960919487
aF274.08446802756436
aF284.2953528243169
aF21.109086078098287
aF22.91527626448718
aF47.49051607490519
aF89.58244509656154
aF78.75309722869446
aF149.1317027595109
aF186.38372163385583
aF167.54346242210323
aF216.05344256114307
aF279.1313199244338
aF371.51129429629464
aF211.75662399028147
aF211.46778806367467
aF211.4759545393251
aF209.85054889500677
aF210.6689886336185
aF120.39475590482787
aF129.65122134851907
aF114.90840470680645
aF202.4312992403403
aF210.1635158514433
aF190.17797827930437
aF177.84515219998514
aF120.52187080740693
aF73.81329035193542
aF66.1795595850106
aF12.601102033808743
aF8.571000154936812
aF8.571000154936812
aF8.571000154936812
aF8.571000154936812
aF76.13392587889281
aF80.88535846621038
aF34.63610068947698
aF79.24882828417391
aF105.4137657776086
aF105.72792960306609
aF103.3847017166852
aF46.79791561215119
aF72.13608584352188
aF23.923949609740905
aF37.41332982889223
aF38.179797077765045
aF32.800487460199776
aF32.96560437228495
aF31.124610247309388
aF12.125816056149443
aF15.06262710059035
aF19.619993876409243
aF18.337289256008887
aF27.580503533736422
aF124.06863714402577
aF136.14402111770292
aa(dp2
I0
F134.36340396191116
sI1
F61.59677742686158
sI2
F63.55235436262167
sI3
F861.1970725687677
sI4
F255.91774821040397
sI5
F73.45837976283217
sI7
F54.342354798359445
sI8
F157.94146146205713
sI9
F118.57152619002268
sI10
F140.9425364483247
sI11
F98.4347263340965
sI12
F57.70831874686454
sI14
F103.64885156630766
sI15
F632.8751962328092
sI16
F93.82316712952709
sI17
F110.11770396281088
sI18
F75.06400690736521
sI19
F362.25675360985355
sI21
F90.09524014552721
sI23
F53.11915664103347
sI24
F240.5205648313108
sI25
F106.5017460505575
sI27
F39.88145976049996
sI28
F56.67910435289159
sI29
F42.95682123433213
sI31
F62.95949549365561
sI32
F68.58864968283712
sI33
F36.34597560403842
sI34
F82.93396968646567
sI38
F76.3724183831163
sI39
F128.6993545500275
sI41
F37.38712916951166
sI42
F97.3989303698078
sI43
F56.07280172420997
sI44
F58.41340381811812
sI45
F25.242894566430365
sI46
F106.181566281204
sI47
F58.58255581434884
sI48
F52.915917340101636
sI49
F83.83616629302634
sI50
F63.09947887800579
sI54
F117.96775113730669
sI55
F139.15461634384627
sI56
F37.1923043661502
sI57
F81.43606397086873
sI58
F94.82783458085746
sI60
F68.27726549421791
sI61
F153.7812259644875
sI62
F134.05096610453148
sI63
F175.30563584932042
sI64
F22.768077831997427
sI65
F116.20131083444286
sI67
F72.78979348633894
sI68
F93.66708064087759
sI69
F108.31984034645404
sI70
F129.46092690986947
sI71
F148.1459422127353
sI72
F125.40960275255216
sI73
F72.8288561481528
sI74
F43.78522642258954
sa.