(lp0
(lp1
F6.050264994205299
aF5.119435453506825
aF19.854986777520296
aF31.232380499637653
aF11.281108305438778
aF11.281108305438778
aF11.281108305438778
aF17.93279480672248
aF15.04952574114711
aF14.114324406646478
aF51.71159478807188
aF72.11800855257542
aF29.0254452853042
aF65.747437919756
aF94.06295722261778
aF12.763706268927157
aF5.373263846003908
aF16.023948512675933
aF14.449980491180508
aF16.178299081288753
aF16.178299081288753
aF16.178299081288753
aF16.178299081288753
aF19.330315727203566
aF16.178299081288753
aF15.034622738576395
aF15.034622738576395
aF15.034622738576395
aF14.490465313076076
aF4.525748148273824
aF4.525748148273824
aF4.525748148273824
aF4.525748148273824
aF4.525748148273824
aF14.490465313076076
aF84.52212166824164
aF76.78703924085801
aF91.11753161549575
aF74.82250583110186
aF23.637435866384553
aF15.10006459478963
aF51.01191713997654
aF9.072622164845939
aF9.904470144837612
aF7.996289397365968
aF9.514680809735458
aF11.896364948802656
aF8.211018895427475
aF14.546859826471232
aF6.2634389396396095
aF32.264954513300594
aF114.18260584864963
aF165.73847958862936
aF149.1104104491205
aF73.60183703114089
aF18.3824146833481
aF29.700546041990506
aF32.16385287087998
aF42.80665880813669
aF58.711800819270216
aF69.65874833598474
aF51.65083107783084
aF138.71776577185912
aF119.94838141990014
aF15.362955349362087
aF39.20053313287231
aF8.969632663161105
aF20.67886401041837
aF18.482336622650944
aF6.9406815350342645
aF16.897392561396664
aF14.50884950746377
aF37.692608746227314
aF19.212825049324028
aF15.06262710059035
aF17.753882706287143
aF52.162024390294484
aF32.76984632999835
aF25.57481460387005
aF21.706496210854677
aF15.781075761492083
aF23.646576324720893
aF14.728801999620813
aF33.75419509407875
aF62.918548298094855
aF142.04240702305225
aF193.1105635082143
aF214.67327173429302
aF222.05691169855947
aF220.55071663539118
aF119.59714052438927
aF123.54100844106871
aF132.9328329500962
aF178.8862230997418
aF217.60380071699439
aF192.1213597790588
aF204.22708876798896
aF153.6566990200116
aF83.92699407201798
aF12.083231922854093
aF24.319026018924827
aF16.49750159207157
aF73.47141952899703
aF6.157885974096747
aF64.84378423980766
aF28.56597690842414
aF6.358773529926998
aF10.32666675123648
aF1.6496158701251327
aF4.193583564550303
aF21.152839523033382
aF17.909787507147584
aF46.62278861645656
aF27.35586159039894
aF14.565011304595705
aF45.310763380765984
aF53.49350181138725
aF69.62619014703283
aF29.627941283599558
aF42.74448940717272
aF19.084388930098044
aF10.673594177985647
aF8.704417888142341
aF10.053063110485096
aF8.375806593852229
aF16.05054086483381
aF20.19924716555449
aF9.156504086376843
aF11.706285861686933
aF9.03708082005344
aF15.085162429044033
aF21.122844312365835
aF15.659777930437777
aF12.312795965258271
aF20.57849635075953
aF56.62216822514921
aF42.60264157602445
aF36.89577617450775
aF29.515976779213045
aF81.4686104875618
aF111.58744549198978
aF62.68956998851798
aF82.84970926077888
aF74.32040171304574
aF45.167275412204035
aF59.03198908727068
aF86.27042777155471
aF72.63690320560086
aF51.156874397750784
aF14.874660960437218
aF13.988271427826033
aF31.872382335625332
aF57.137062830053864
aF24.779626413370544
aF10.557360674404586
aF11.473229522701464
aF13.239570649471162
aF13.194576952890229
aF11.250252512591935
aF11.585682280565255
aF11.456357506543677
aF71.72290523295761
aF71.88668069537673
aF71.8186522281368
aF48.46911101474935
aF21.44375287846987
aF48.424851970173364
aF29.90586476068838
aF42.53554769556826
aF107.24270765556561
aF8.793640716903392
aF14.061673422565086
aF19.570405436273134
aF22.160699621367986
aF86.48353057081113
aF105.68212353739541
aF142.64058539990924
aF136.09426485262523
aF138.3435949970452
aF61.244135434090445
aF227.31251858967292
aF240.44405762342583
aF249.60767839695916
aF232.47743340933354
aF170.79250055211284
aF143.76710730590463
aF124.07680326436603
aF62.084926557978356
aF58.921955109417404
aF9.387385418826474
aF87.71548838488602
aF80.46260419218157
aF13.225003802819929
aF52.995574819586764
aF23.084511773452036
aF37.98117357485227
aF13.0050419516204
aF16.210315237414886
aF10.392409162161647
aF64.4570841905044
aF100.71601474360455
aF69.56435295272433
aF51.695945124981385
aF13.345127853587794
aF24.74272231572248
aF95.58248717358705
aF18.638411363565705
aF4.5087092284072545
aF35.628568410876696
aF90.95933351038649
aF90.95933351038649
aF151.81791582825775
aF225.33198543056054
aF19.36153156774687
aF20.252541047685472
aF4.61822842031378
aF8.279658399940477
aF40.13548983139216
aF12.697462473454339
aF17.400648708477526
aF19.48176212108974
aF17.98765298701006
aF18.15970577387186
aF40.40876344778147
aF81.59258162830331
aF51.768176570015385
aF41.982904823167836
aF42.23223512843999
aF117.18271406187225
aF86.99301542910763
aF9.114076017576549
aF9.42865958733949
aF58.23115647571657
aF63.91656955497544
aF168.23056202058362
aF230.60799936011304
aF321.89380163676765
aF330.6081934927878
aF256.37883689600136
aF211.28728433981783
aF173.36273308659946
aF125.89790520512146
aF66.09994531026233
aF9.778872565343312
aF1.591310491360147
aF10.14895186452717
aF9.606708168910297
aF3.167747302971789
aF11.28348001916659
aF37.86064525526725
aF60.515731991262356
aF31.799660176644494
aF29.945891759980743
aF33.88250782317347
aF18.89114771975395
aF41.92228239196723
aF47.72206305191411
aF148.69868214082038
aF88.30539136927571
aF71.03997386645982
aF38.64731774736204
aF26.074288537511155
aF16.69870325722996
aF17.523759381909247
aF50.63053591610779
aF18.528861559281342
aF91.89841940043266
aF18.880524845592674
aF21.431282790657658
aF47.67546252502153
aF32.114855088239544
aF66.50590931080403
aF66.50590931080403
aF183.22510450674804
aF225.7342623741529
aF189.20836253009315
aF80.04642089080903
aF22.201034895355587
aF6.750254254053914
aF16.98142025406961
aF14.49405297138187
aF26.542900044358568
aF23.10545778721708
aF53.745168152223556
aF21.780924032406688
aF46.82436708861994
aF16.808437721564708
aF61.107361061592556
aF79.93676078295495
aF45.030664219323086
aF47.80872713432171
aF13.921323715599161
aF13.856509841749329
aF14.604068969593042
aF10.361818803030166
aF10.215295711834578
aF10.218119643696205
aF10.171295061070861
aF10.118950956036393
aF10.152499460921433
aF10.121589136278752
aF60.23126297570608
aF93.94348291062786
aF65.054040802152
aF110.83351996845128
aF41.0482165880488
aF25.527058309109215
aF29.862919780403185
aF24.34254089869601
aF18.046929243425968
aF29.889882891734004
aF30.03951241499143
aF19.676337262634533
aF28.91140053912381
aF7.692153840835891
aF33.54213843505881
aF15.124687263697782
aF12.274755689108131
aF17.150875303678152
aF17.794715548774892
aF85.60011132139135
aF99.8298260318638
aF144.25723129316867
aF178.31580097762244
aF40.83685527146711
aF10.296823090480354
aF31.07703387277459
aF20.20905404530154
aF30.352195516940792
aF31.340234058421697
aF64.71490159015859
aF37.11603515489228
aF69.32678282780289
aF98.24083932380162
aF34.318427779554696
aF12.710393020951617
aF14.100153218254915
aF14.142675055326206
aF30.54180135102961
aF60.946691632320906
aF43.550974924220796
aF38.91232377112822
aF68.75167557712348
aF147.52316374475896
aF99.31372889428467
aF110.57598953382075
aF37.378452784236195
aF42.87073665723213
aF40.362274947958504
aF13.18638074291012
aF13.93420500759586
aF14.142772551506946
aF14.58831284516839
aF14.354617456191201
aF43.06237049657376
aF45.067378982888975
aF43.37329242690363
aF16.739002155936372
aF10.196801111771533
aF7.082627187697969
aF50.52478605655675
aF40.6173134984633
aF20.890117120383028
aF13.044777366650138
aF12.416783725888752
aF16.614683925011736
aF20.70638852352361
aF18.65158288600995
aF29.184388384550175
aF40.146684628799626
aF41.01794117989822
aF25.018038836785397
aF11.839816263798026
aF62.12997836935948
aF33.85211000339459
aF21.629234163012956
aF12.648649072079232
aF40.369398310248066
aF40.11187859891922
aF15.222744539599576
aF12.8650836787528
aF12.8650836787528
aF11.885952428522575
aF11.669819174963836
aF20.266626145751708
aF33.30732927902335
aF27.702360277531156
aF9.386441063897392
aF10.273590334531807
aF18.895791377647875
aF48.658815508692655
aF78.91205338478261
aF57.458467208199274
aF37.78004978332193
aF54.41429565028065
aF17.326201726959535
aF23.31888852939956
aF27.86951489102297
aF25.01457529924005
aF3.4820973358919347
aF12.723752623224541
aF15.005586450546854
aF14.912694757264463
aF33.37549758614461
aF13.063901000177298
aF10.679385817968155
aF16.875672027605525
aF15.526924942240209
aF52.14591738873299
aF31.481833821712655
aF49.49374490141373
aF76.05207043033305
aF90.26103099353477
aF63.63726656924543
aF0.9282064225957347
aF15.679661194711723
aF14.853928866101988
aF24.221266686848608
aF44.251280982778816
aF54.858877500817755
aF14.116010847172339
aF6.660200547067761
aF9.876631518798273
aF7.210175055901167
aF40.72618052638955
aF68.9452949919263
aF22.20621497801836
aF11.30896599283101
aF22.713030406311677
aF6.031285388121452
aF17.215709365081302
aF2.1959388976621232
aF19.575740488738255
aF6.699446726195866
aF9.02153700334992
aF13.410424642577421
aF14.104462718897263
aF24.56684690987897
aF22.212353611667975
aF22.194720120563233
aF21.81867654410446
aF12.785033873409557
aF11.844192306918925
aF10.938117599993266
aF10.92435414319343
aF11.40014793440002
aF11.725365895669102
aF11.748338188399934
aF11.715271739080585
aF11.812744221613427
aF11.9351838548534
aF11.797658943209134
aF11.766580783318307
aF11.766580783318307
aF11.656307570466259
aF9.202283986645218
aF12.099233068935044
aF12.225862797953592
aF4.372224813993834
aF18.363189388764894
aF11.058776406828061
aF27.55947406805326
aF29.189216095465557
aF4.844047432204009
aF14.044209363471278
aF11.606217797339278
aF10.713096716511663
aF5.355095723405273
aF20.02995571033047
aF22.981358703720844
aF49.52861900705856
aF11.671002266225607
aF11.671002266225607
aF8.876542640523757
aF9.661253904960715
aF51.63389491611536
aF8.862185468049018
aF14.220299211220222
aF16.016902810126293
aF4.14082802204612
aF18.417702893550835
aF11.221037274820613
aF8.399637055932136
aF11.79577594191654
aF18.454240689271934
aF26.18503694694805
aF44.75806781983046
aF26.57269582284063
aF16.391501538711324
aF34.95357399366232
aF34.35923826319619
aF20.125641940324535
aF16.77972818319275
aF14.019715145513397
aF30.43945832955343
aF48.9161539440496
aF17.096992702301478
aF34.63316265574495
aF13.444838687149323
aF19.36003307965437
aF4.5887166133379464
aF40.6453753911566
aF86.7456072881875
aF70.04597581449792
aF63.531523039216424
aF28.305782066565552
aF11.694285758472663
aF8.297695432103641
aF23.94006380342839
aF30.964660217640887
aF8.910717679261024
aF23.212176649190393
aF13.674323992076218
aF71.23752028264899
aF101.12560934753586
aF60.24854855918957
aF41.19058854539394
aF24.12865938922112
aF30.49674023146192
aF38.05358948093581
aF8.887016511360404
aF28.210382608269477
aF27.425025860520865
aF2.512880455946646
aF12.289277227565938
aF8.308764063772383
aF11.043551077308258
aF10.55909069233581
aF12.704074245441374
aF30.04318748672272
aF10.80259290582904
aF6.4891630000260365
aF4.532138549592563
aF15.09216055209726
aF30.66655338146249
aF7.474781633168448
aF12.319268544066274
aF8.2245856616345
aF26.97088022232983
aF23.080560042156577
aF23.080560042156577
aF12.181262122977188
aF20.944026549921922
aF24.354965683893294
aF24.711781971305065
aF14.273995167101914
aF14.273995167101914
aF32.37368984143947
aF73.86144729157651
aF28.305201180002683
aF20.5206421240794
aF31.4816466985688
aF52.9447584404829
aF38.92419507430526
aF18.623671510974283
aF23.669112572150414
aF17.50125308190699
aF27.10882027785415
aF13.26054090915645
aF52.80143042068522
aF128.83222550665806
aF96.44381904452841
aF77.22833527088237
aF53.33746821822994
aF20.77909303339914
aF27.41057898398326
aF8.725082733032714
aF37.06334794705944
aF51.82980685420225
aF6.3896701225025625
aF11.96902747715627
aF12.597311998318105
aF26.550296597474286
aF16.366063063310452
aF16.270756333868533
aF14.766936572026129
aF19.71641683000063
aF17.906983650147616
aF42.92604544741987
aF15.72435394713155
aF2.4367809445041955
aF15.581086039124576
aF26.916839899851283
aF75.11611604596631
aF76.71530371521732
aF55.6446015268635
aF6.955585067541841
aF69.2212783781309
aF56.373368634896536
aF25.53251137033314
aF8.584166788181879
aF14.018693648260092
aF12.297135861092077
aF13.507415986292674
aF10.56253736001141
aF45.4032363908297
aF12.318504212895968
aF35.96486653417945
aF46.04402068845302
aF1.2180652358149733
aF16.791948294399464
aF16.14352986283621
aF27.61012952147146
aF36.44902887422648
aF45.40083364998386
aF48.681160892635056
aF14.591613964410538
aF56.04097098716335
aF84.32270541192608
aF91.41687791845467
aF74.1581739286087
aF25.91310120375096
aF6.660383802436588
aF15.655023753582293
aF88.91030832203579
aF117.02359183944947
aF82.57008882961439
aF44.42763017053665
aF14.088984638902435
aF15.55582180395336
aF14.692269140111533
aF17.359790813543814
aF20.65546162219797
aF9.7468998332392
aF9.7468998332392
aF15.798305916760016
aF15.457547969173334
aF14.52401212732981
aF14.065399390975019
aF16.84871464733868
aF16.92982559946206
aF16.491600415588714
aF613.3590809234736
aF617.3204124716599
aF616.3864857424649
aF660.895353730083
aF663.1452344234755
aF631.0565682435619
aF617.421956206725
aF606.437978645704
aF609.5926865307106
aF611.3465784235744
aF23.402531003010797
aF16.22900952409889
aF13.68580187575335
aF5.588796349710691
aF9.732039642400496
aF23.978668838550785
aF11.070848968031608
aF12.38571944003582
aF6.2605333638033045
aF11.305917126007913
aF0.5595789846934011
aF5.929834180881214
aF36.815459705792314
aF64.62116857467902
aF64.7213581882365
aF65.02096260007293
aF70.03383271391158
aF8.510010356824356
aF24.85019799868131
aF14.706614649237338
aF7.290422707520852
aF7.290422707520852
aF10.602471728108233
aF26.097312368676544
aF61.660094579769726
aF76.40203018775557
aF109.67224958973526
aF91.24438326154862
aF133.0014591064004
aF138.9359792894833
aF127.99496502682773
aF105.97236809904327
aF39.25182599083629
aF19.942126047463073
aF8.265151822295651
aF14.384735797065968
aF14.1705783470443
aF29.083589404642172
aF23.41004127989953
aF2.7783880676322474
aF40.3556938798013
aF26.311143026577206
aF63.89169627704876
aF114.7829718375567
aF124.71101239407858
aF4.225336821314512
aF3.9271793029354076
aF31.63055191698765
aF23.118763012628857
aF29.866373266397876
aF17.462596818280595
aF12.688851269096274
aF19.002275443411826
aF33.78586219399629
aF23.793655532370686
aF2.581193949410225
aF20.56855986835763
aF12.725287673064079
aF10.339844790161742
aF5.392371780277447
aF22.557264741959052
aF8.223421756581628
aF4.333263878947632
aF4.88490963743799
aF32.60084545861156
aF52.91598207336448
aF11.526724016289975
aF18.92540608564338
aF27.670559823488016
aF32.45233266829069
aF24.433096562102268
aF12.002524063277335
aF37.61938606726904
aF43.06471580793078
aF39.604484297459024
aF23.546036195952748
aF33.173942924033945
aF12.927714554745743
aF16.862644549589767
aF45.03288127100055
aF45.03288127100055
aF70.03487298448928
aF106.23995474488764
aF154.98483166596483
aF197.07342403926413
aF230.7070430720927
aF238.0613335689287
aF261.10872893226946
aF212.2138146852389
aF173.46137888212297
aF180.64103402608671
aF159.0638258075649
aF119.52062445765216
aF29.136976750252156
aF20.868329662428494
aF20.933481651491398
aF37.2601236771415
aF66.02403822526861
aF21.07695825088174
aF21.013817362356082
aF20.868417355404404
aF7.9874420223101215
aF26.439927598140375
aF26.971349784959386
aF11.850359743441558
aF16.82688051562556
aF16.46190534220767
aF19.383425765694152
aF19.383425765694152
aF6.455868402815666
aF7.620670803236506
aF5.337805674700789
aF25.964433679478894
aF44.014189148017586
aF23.22667598208976
aF28.209148118475035
aF20.935382723620364
aF12.595071158725009
aF6.174516070719974
aF6.397561905311454
aF6.397561905311454
aF59.45590230970445
aF69.18188733772274
aF32.55565482156163
aF14.432185536424472
aF27.29950888111092
aF11.06457077508173
aF25.368248660349177
aF4.394402795791787
aF8.816512262847464
aF23.52377528204633
aF8.662819862618122
aF28.043919844506718
aF13.21983699685435
aF26.826764110511803
aF17.225385977435508
aF21.28512240609477
aF14.777146498878786
aF20.370935706282975
aF6.240167039440487
aF13.411845357077384
aF87.60998848488333
aF87.60998848488333
aF95.93707540219955
aF95.02937692749236
aF88.30256833302151
aF59.7469858575716
aF20.924419747880442
aF7.1574473406455
aF9.065265021021212
aF39.9526933200033
aF78.07176218925554
aF116.97760513210443
aF100.58994048910486
aF93.1863936717628
aF69.77575538033756
aF12.07454700100596
aF18.780129944825696
aF22.831603287622123
aF18.908190517272605
aF22.927138690181536
aF28.257233213239658
aF9.355757115625527
aF9.354983052277476
aF24.16130826089862
aF5.643252663602059
aF27.665399811019917
aF36.74565396817053
aF33.33861902799312
aF27.596377873097715
aF18.063259337372656
aF15.170714209315374
aF18.738936963287422
aF26.025908956478542
aF14.914183145409858
aF8.159796807018425
aF13.302733672148863
aF18.269796805404653
aF5.889461747193678
aF18.04902275318364
aF24.702344765953107
aF1.632004760788299
aF16.043917132263942
aF10.823271651850758
aF15.687555981460996
aF1.748440393875334
aF1.748440393875334
aF15.318078582946253
aF5.54437549353708
aF11.643924688397753
aF14.000500231620002
aF11.317947210077547
aF11.486452565289792
aF7.3412654557357
aF16.158030042751566
aF21.71929475914683
aF29.01640384045832
aF18.969698420807752
aF16.133242720633724
aF11.206897610074373
aF9.261996061421211
aF17.039710720307138
aF7.132123679812458
aF15.76443068905955
aF12.891656428840633
aF26.945487618944682
aF45.86093889600774
aF29.118011579183694
aF21.29794563197014
aF11.212539599068863
aF11.910064203268023
aF11.654397221980272
aF11.564456278391937
aF11.289667250817025
aF13.316836034283074
aF15.568579177859826
aF172.7327883394275
aF133.54930976676982
aF74.89787301671453
aF70.66210735259999
aF70.66210735259999
aF19.07937656739276
aF23.161167210235682
aF7.370625234435335
aF26.557662631056267
aF15.299763113400655
aF10.30381209913596
aF53.573059894761855
aF95.94291442583464
aF61.08917979332669
aF103.22160438875422
aF55.50533308930289
aF12.863214496532361
aF12.863214496532361
aF6.446848859597153
aF31.12305179524634
aF15.109385834984332
aF15.109385834984332
aF109.86451013857332
aF129.34970453126763
aF144.5479297544864
aF144.5479297544864
aF176.84945060875086
aF196.24533450629616
aF212.65018691251774
aF171.01161945521596
aF163.7205531334274
aF138.02571604936202
aF113.30499254177491
aF107.64327657723743
aF77.03832111224055
aF51.67612002419399
aF51.422828022173206
aF23.73035071197611
aF24.174220750835715
aF24.174220750835715
aF13.974529110711428
aF13.974529110711428
aF22.97998547829556
aF13.390018156407528
aF30.421710284885776
aF24.415728110154124
aF10.52093548833687
aF10.172957878671067
aF4.236052998432978
aF13.824223274668054
aF42.9790483973261
aF42.09160293590288
aF29.732538587671005
aF60.11545092725593
aF33.37958852421037
aF12.973157633911457
aF121.64454832673209
aF120.41479330887455
aF15.228516833058157
aF7.184540291129765
aF11.67195960792739
aF7.184540291129765
aF13.756786118828277
aF8.924160890833857
aF7.184540291129765
aF12.237244043277553
aF12.237244043277553
aF11.71447717546664
aF12.450143829489013
aF12.450143829489013
aF21.544788880082873
aF51.80780941460083
aF51.80780941460083
aF14.180592187046587
aF8.09278091863611
aF8.09278091863611
aF5.570505215022861
aF22.66162354882612
aF15.440172250548269
aF21.466443319236628
aF14.01165745585099
aF101.93063738938754
aF21.744477891260697
aF29.935871854584594
aF29.935871854584594
aF72.57829070566979
aF31.411595697433615
aF31.411595697433615
aF34.79717207939371
aF59.27430661348632
aF74.2297359450915
aF97.7639899947168
aF56.910311134473105
aF26.606192895351395
aF8.006204867087437
aF8.006204867087437
aF5.231197239470743
aF10.541612745867033
aF8.843611303537616
aF18.717024797434807
aF14.546859826471232
aF40.80827438115774
aF37.512029511746526
aF120.62542241681524
aF130.41500037059325
aF64.9334086463342
aF64.9334086463342
aF120.48467883791521
aF141.55074706498786
aF141.55074706498786
aF64.9334086463342
aF64.9334086463342
aF13.150118164086583
aF88.3358499058096
aF123.16896729116911
aF123.16896729116911
aF83.73692203602921
aF182.40915986630466
aF102.26726024840168
aF102.26726024840168
aF39.13913440980624
aF14.907595770852474
aF11.809323549166814
aF19.73373397029011
aF9.87445141697316
aF35.048418487780935
aF28.774186026521434
aF31.072806408892223
aF41.69685653808648
aF100.14192089587463
aF153.27399351219222
aF141.37324723888847
aF84.07229291926562
aF17.1857888024731
aF13.30780208468422
aF19.54568415180094
aF55.61372925463419
aF1.702120227787027
aF22.874110312220502
aF18.230337807580728
aF4.53949837135528
aF3.954488349458815
aF5.806840976451841
aF8.76953726340184
aF11.435016724242756
aF11.245856815687189
aF11.107909221162748
aF10.937424179793721
aF10.475114312184365
aF7.718084081635017
aF9.41950442301362
aF9.07406827845177
aF5.63431880608903
aF5.004806690149158
aF5.215323133739091
aF5.198972047518019
aF9.876713257830797
aF18.665566782859763
aF16.395582536214217
aF12.147081280588464
aF8.42557756575255
aF6.656005101208201
aF64.99267150455998
aF9.791731979265586
aF7.305123944375943
aF33.62483274098651
aF21.548972787723084
aF5.476588449239615
aF14.476364381069246
aF14.447301181284077
aF19.594425708950585
aF23.994789266980874
aF16.250069631061884
aF30.57187887020223
aF29.883527194907902
aF13.568569095401648
aF14.33092449050447
aF12.237244043277553
aF12.237244043277553
aF14.599439448799497
aF16.059177033001408
aF18.403154502701486
aF18.403154502701486
aF18.403154502701486
aF51.69123508941365
aF10.44662440952449
aF10.088842924218744
aF10.472708028257966
aF9.183473562140167
aF10.914455873484952
aF10.64670540451311
aF16.26581144017705
aF18.02027165781026
aF15.55326420928936
aF17.55259899457511
aF15.623271819084588
aF14.700016846475254
aF15.848771613058057
aF2.767013255554157
aF17.77704121223573
aF8.351576677915025
aF18.221056540815972
aF14.61318904680766
aF7.407080180098279
aF22.8008708079154
aF22.8008708079154
aF18.155434097030813
aF21.321103392852578
aF21.321103392852578
aF18.80535163582624
aF14.06800461329074
aF8.182747137443489
aF27.000685830546043
aF37.069179826852825
aF15.06262710059035
aF15.06262710059035
aF13.43527639282934
aF40.66345281128058
aF54.804429669804975
aF58.9354096654857
aF77.6557792036065
aF30.351696471532602
aF21.054211145022624
aF28.513530031344466
aF24.015379850979045
aF40.85263459685494
aF44.44305573271713
aF14.744045345729978
aF16.826153312839033
aF10.790098230924945
aF23.054835090216585
aF32.945298279851436
aF18.243753280069125
aF59.20019386497422
aF39.455084113484624
aF45.38610678198176
aF17.591157144501672
aF26.810616256522707
aF35.7869636629974
aF53.1487034083412
aF41.52767104606883
aF86.67547835217512
aF58.0453253295929
aF31.749687334537782
aF40.57167082549892
aF9.632392406250135
aF11.070041999309892
aF6.876404062836345
aF0.4396641960605871
aF11.651416057343736
aF10.978965151009218
aF6.188625219760019
aF6.635371191690939
aF11.173650463468014
aF10.436676925943857
aF11.15497504458742
aF11.784681311038097
aF12.723713866692666
aF13.552997101091046
aF13.552997101091046
aF13.552997101091046
aF13.552997101091046
aF13.528154458452066
aF13.528154458452066
aF13.533006228664386
aF13.537723503185715
aF13.544859756525948
aF13.445260131623298
aF13.350794202370713
aF13.350794202370713
aF13.347067251611403
aF12.840365979144647
aF12.840365979144647
aF12.754365999851808
aF12.777763365502567
aF12.805975743113054
aF12.809603321871958
aF12.809603321871958
aF12.809603321871958
aF12.810812516740697
aF12.810812516740697
aF21.16514967204166
aF35.27616465915057
aF93.69442707451216
aF101.23604888980678
aF82.19612976767901
aF47.58793306030952
aF15.377113022787631
aF13.27009743318146
aF21.33259366012164
aF2.521781157094971
aF27.281763204547172
aF5.641355492145561
aF26.791415780407736
aF8.411025533560366
aF12.049167509732666
aF16.13746979367748
aF9.485201962746599
aF12.181274128295744
aF10.337499579058345
aF9.95936668656557
aF4.0772631439412415
aF14.565507405247978
aF12.466111990879464
aF19.12398728360839
aF7.044261296611758
aF18.780752460576913
aF36.33213193193037
aF13.49023751306558
aF18.5528121521806
aF12.361778530497634
aF31.66639402082763
aF9.504818697245312
aF49.58428536895685
aF102.24265714710643
aF91.30963069912963
aF24.548673999026732
aF82.13998615188542
aF40.079320046773006
aF37.24750165518271
aF16.0432022321334
aF16.0432022321334
aF80.88742465390717
aF135.19250794543507
aF29.421805856081452
aF16.260643161530876
aF13.624038682376668
aF30.362068243326686
aF7.14833914524622
aF15.347218901434323
aF10.463551226557506
aF13.202218085644931
aF12.127075583207787
aF2.882032158399856
aF9.56172949780212
aF21.572335522443144
aF23.06090376898635
aF22.30051666243429
aF14.970566396541205
aF2.457538756893517
aF6.403919252470611
aF23.607780012864872
aF17.137552366090954
aF19.17413785183311
aF44.26197667443983
aF65.17787876186524
aF73.83244181913417
aF26.46536524806965
aF18.94999514284557
aF17.880586989785797
aF58.380389096475014
aF13.926146048884682
aF35.30103249429349
aF11.695432186256967
aF18.08349720869262
aF87.63035873912237
aF15.198764975146096
aF15.846493029115075
aF14.14125701108651
aF1.8530600566780842
aF14.881378364172319
aF24.239986803253327
aF70.16237588997653
aF31.193422458218084
aF27.155975296314768
aF45.09741072186691
aF12.492988957705643
aF17.11195069603651
aF3.9622486729972444
aF15.53768365629496
aF95.85904650237767
aF54.85815303380279
aF4.051328710530404
aF8.58380708375038
aF43.440499939726585
aF11.66552311449547
aF38.86551208658584
aF27.54730034310855
aF7.078080488919879
aF6.397561905311454
aF22.374158268554474
aF6.662619744175027
aF8.95910222753783
aF24.466427727086117
aF11.785530849187973
aF230.10122963945207
aF152.6181481889631
aF44.57469900603107
aF57.64014491697992
aF14.308207784482713
aF28.555587921953318
aF4.430985367454292
aF6.2944089894669215
aF12.239161287199522
aF9.204434589918742
aF62.90231572387098
aF132.65849611471913
aF184.28948628196437
aF209.86922814318316
aF42.140823814955446
aF33.41249978990317
aF41.68299509373896
aF34.6448145972733
aF22.87656949474613
aF75.64315102676136
aF1.7315787481040086
aF16.50381283048291
aF5.421697040719585
aF15.075604035974917
aF23.310938678424165
aF55.172460837192226
aF191.92995700659068
aF122.48967946081915
aF50.99159368936529
aF22.327223697317415
aF20.360187100176287
aF5.481561639740932
aF12.802386238456304
aF37.78103049255728
aF11.076293347636634
aF7.242342730020032
aF15.970832820042919
aF40.32224264312471
aF10.01363912480055
aF53.52799903748798
aF29.77785447152689
aF44.48861967858286
aF36.8272942550668
aF29.91954720474997
aF12.06526897735298
aF11.822971757407172
aF14.814139617162407
aF18.825874429171517
aF30.206558088436537
aF51.828772912990786
aF96.32767962519978
aF63.06052554240819
aF106.71115470373095
aF111.28095870784335
aF22.185226990140198
aF37.621900711160954
aF15.845522067031695
aF15.845522067031695
aF84.70497670806742
aF58.749559261386985
aF48.712034267123485
aF34.38945357343705
aF139.8425035692944
aF116.13589328745843
aF73.48183439397388
aF39.13969822967546
aF11.700781297412119
aF69.0194900671751
aF6.7135201656375685
aF9.261317525643621
aF8.205594972634186
aF175.6420668972586
aF95.95156231181478
aF96.61345343530927
aF25.169659221337554
aF10.746680132296074
aF9.095459648148612
aF11.683379769653223
aF8.727504373350401
aF29.36329916115518
aF28.339191747914487
aF20.16013773415083
aF9.705168518980456
aF82.10259127279187
aF315.7512124941744
aF58.812032173946584
aF6.085143382438092
aF6.085143382438092
aF14.32131360131753
aF9.610718517620619
aF8.997514917968498
aF58.35232234161088
aF26.217096707940907
aF26.313547393301693
aF54.01507743306949
aF37.0246598611771
aF140.95981622108536
aF144.23402539926943
aF60.35031910867199
aF54.83791158120349
aF40.2503009996391
aF1.838850573096927
aF40.38961844723159
aF12.239161287199522
aF31.92933469800456
aF15.960167442133264
aF31.072151373461327
aF17.846432378179927
aF14.643008737865042
aF23.56049804099288
aF38.38889745061094
aF49.3049774996275
aF35.03301564653378
aF33.85015764783783
aF18.19136352641907
aF26.3603370355474
aF7.239619533515792
aF15.06262710059035
aF15.543885959670247
aF117.7239908778258
aF165.32538298030005
aF30.483245723505465
aF11.241704419572983
aF12.664682198857092
aF37.596441770554904
aF7.280049937299454
aF13.464498789108852
aF144.3609901711437
aF94.9021105020281
aF96.32767962519978
aF272.9354916318607
aF249.96308899222086
aF261.213112820713
aF116.27725440845138
aF13.501117047897365
aF12.695569843613983
aF20.451344002670886
aF10.77231849321573
aF1.150432856001017
aF72.03582789023719
aF89.70066681549145
aF95.25045250381517
aF88.28473540065112
aF155.34991880947385
aF298.1575042489055
aF207.60480608464587
aF7.70770515761533
aF30.4637004665885
aF72.31314788518482
aF77.29387452335659
aF76.27765919588126
aF72.6292316703839
aF54.23990046941452
aF5.044252992848069
aF15.183190713593223
aF23.371946721277514
aF28.087177957856465
aF69.15479715556594
aF10.878402596676978
aF12.206635301112776
aF35.62819152579284
aF16.19900349041876
aF12.357571173574069
aF23.796199108660492
aF8.690211037248698
aF35.322284638017486
aF16.088998454392804
aF29.70003293704792
aF6.713267810193277
aF2.45655541823635
aF21.812054505521377
aF37.78103049255728
aF27.472774917879
aF2.320305178702862
aF36.20486057687274
aF76.6812186774226
aF146.50300221369417
aF304.58488776887924
aF316.77473175523755
aF317.43091973786585
aF340.86046717327474
aF217.47167787387704
aF97.76246889258971
aF27.922669161278613
aF15.06262710059035
aF10.496125017968657
aF77.25391532068488
aF129.91563124057583
aF166.88872167702527
aF248.56571004550736
aF58.79655363457025
aF17.75828272351374
aF5.436568996098883
aF43.28153360781311
aF77.25533670431481
aF77.26301257664191
aF46.950642734606156
aF72.08135305317936
aF72.38197638395698
aF41.83318048224459
aF49.9204261793973
aF64.95086695478707
aF17.69771530805571
aF15.06262710059035
aF40.82048144473861
aF28.57166542269661
aF57.36144269054602
aF68.32229305834957
aF82.12613091822794
aF61.77672924377663
aF23.896534616320196
aF38.00479228788529
aF39.3065460430395
aF74.23836808253652
aF180.85634998159463
aF126.13085071363004
aF58.93882581327116
aF18.513557134344158
aF56.46456637050911
aF36.88661614371418
aF50.90080498411075
aF55.74517879207383
aF23.651739095244068
aF61.43387933253348
aF64.73776128334188
aF145.71311827801864
aF163.93147236006604
aF5.917719925008848
aF11.992523144359719
aF17.964091829097026
aF204.8489431861732
aF144.8849555068522
aF176.51124807559967
aF120.22633119402444
aF156.87525508918728
aF95.21752384935962
aF123.12871377474332
aF71.77277244270333
aF17.684007143306978
aF24.84337918721895
aF11.686845387730399
aF7.188258291645904
aF17.97084075639804
aF55.38313625189222
aF15.0063210538954
aF79.61666818539814
aF21.11621398420755
aF16.48682707081336
aF6.65545689779435
aF30.4637004665885
aF25.080988519953195
aF112.02578631564548
aF217.71502073882075
aF255.01278461698504
aF10.593529516004788
aF10.593529516004788
aF13.377653593558623
aF21.320733581600017
aF30.315373180483952
aF23.644472728942677
aF88.9792083021696
aF104.3638287880084
aF99.25045757997765
aF65.51965251542983
aF60.150497595317255
aF22.998821274322253
aF19.382870631050952
aF14.516835639718845
aF29.89600433945962
aF72.39765201462124
aF8.571000154936812
aF8.571000154936812
aF8.571000154936812
aF8.571000154936812
aF69.38834693668329
aF70.85487049045454
aF39.18436453724413
aF15.583071564005317
aF38.3994446622729
aF67.12825471716815
aF10.27764815496292
aF79.85513890308073
aF72.13608584352188
aF28.303807337391248
aF15.946281415270974
aF10.201809932794603
aF63.888851312813266
aF15.333248617994105
aF7.699929904485331
aF15.06262710059035
aF30.4637004665885
aF26.11269899053589
aF20.343531497728996
aF25.119736728925616
aF26.05763553402998
aF39.09080368119192
aa(dp2
I0
F15.564266931217517
sI1
F24.480916337805073
sI2
F27.210142883681943
sI3
F56.867892935352984
sI4
F58.42078890196693
sI5
F42.79983811851722
sI7
F72.61616014328567
sI8
F48.75150449513027
sI9
F75.90380911244542
sI10
F58.06753210266069
sI11
F46.95671521769659
sI12
F26.532760377208312
sI14
F26.65922692514169
sI15
F624.6962335341432
sI16
F25.961297710568857
sI17
F56.09140091365291
sI18
F24.45747110101808
sI21
F63.87836273078033
sI23
F30.055767277716072
sI25
F58.05465120416342
sI27
F16.534318994242213
sI29
F20.917148471804733
sI31
F28.59664890337113
sI36
F24.985214210191153
sI37
F37.302689361167396
sI43
F12.901192751996385
sI44
F31.264903944094655
sI45
F23.870287840208388
sI46
F82.12046671111709
sI47
F30.634745499023012
sI49
F42.21453615312679
sI50
F35.8693816712613
sI53
F53.630373405413344
sI54
F65.64652619416684
sI55
F27.803142701166315
sI56
F45.00797116343103
sI57
F47.456750478043524
sI58
F49.813489237474485
sI59
F100.3254932851415
sI61
F69.53289130423188
sI62
F88.98751885328485
sI63
F110.14883848112197
sI64
F46.63188137382545
sI67
F50.621600133182795
sI68
F71.173760586445
sI69
F75.54458804896306
sI71
F75.8693549183631
sI72
F36.079256070820875
sI73
F51.42302508993265
sI74
F24.894204809256987
sa.