(lp0
F7.7856326014734805
aF7.7856326014734805
aF7.7856326014734805
aF7.7856326014734805
aF7.7856326014734805
aF7.7856326014734805
aF7.7856326014734805
aF8.321758892619982
aF8.639055220643058
aF9.056096143904142
aF28.369534815977886
aF28.369534815977886
aF63.87114708539645
aF68.12959322177826
aF72.09127096272262
aF83.15860682502928
aF101.99824936779478
aF100.34705293936648
aF100.34705293936648
aF100.34705293936648
aF100.34705293936648
aF100.34705293936648
aF100.34705293936648
aF100.34705293936648
aF100.34705293936648
aF100.34705293936648
aF100.34705293936648
aF100.34705293936648
aF125.31138540337844
aF123.02189685421489
aF122.90033053387633
aF122.48442083719712
aF121.81830560153168
aF121.6510217788396
aF121.0850908447456
aF120.2893097393146
aF120.10649117084796
aF115.255342329212
aF112.59612034406746
aF39.1335934488097
aF33.05916913600644
aF26.453852740360116
aF9.774456881335936
aF9.774456881335936
aF9.774456881335936
aF9.774456881335936
aF9.774456881335936
aF9.774456881335936
aF9.774456881335936
aF9.774456881335936
aF9.774456881335936
aF9.774456881335936
aF9.774456881335936
aF9.774456881335936
aF9.774456881335936
aF9.774456881335936
aF9.774456881335936
aF9.774456881335936
aF9.774456881335936
aF9.774456881335936
aF9.774456881335936
aF53.4363763057387
aF49.58337232123289
aF46.35571311229439
aF45.61915956470008
aF45.04441323076075
aF43.72173739679841
aF43.507515732475596
aF43.275483037896606
aF43.221184323226474
aF41.839583735494706
aF38.07832880303546
aF23.694984426196903
aF1.474207422926726
aF1.9436891544610262
aF1.9436891544610262
aF1.9436891544610262
aF1.9436891544610262
aF1.9436891544610262
aF1.9436891544610262
aF1.9436891544610262
aF1.9436891544610262
aF1.9436891544610262
aF1.9436891544610262
aF1.9436891544610262
aF1.9436891544610262
aF1.9436891544610262
aF1.9436891544610262
aF1.9436891544610262
aF1.9436891544610262
aF1.9436891544610262
aF1.9436891544610262
aF1.9436891544610262
aF1.9436891544610262
aF1.9436891544610262
aF1.9436891544610262
aF1.9436891544610262
aF1.9436891544610262
aF1.9436891544610262
aF1.9436891544610262
aF1.9436891544610262
aF1.9436891544610262
aF1.9436891544610262
aF1.9436891544610262
aF1.9436891544610262
aF1.9436891544610262
aF1.9436891544610262
aF1.9436891544610262
aF1.9436891544610262
aF1.9436891544610262
aF1.9436891544610262
aF1.9436891544610262
aF1.9436891544610262
aF1.9436891544610262
aF70.86685762086351
aF70.86685762086351
aF73.8895069598351
aF73.37581822903363
aF70.86685762086351
aF70.86685762086351
aF62.27235273369317
aF53.86800898733174
aF30.30534953819269
aF21.780426785323804
aF15.642517269841512
aF5.465803708787041
aF0.7188336601894704
aF3.0335699999704957
aF5.095510035054758
aF4.32562023808714
aF3.500090985558927
aF3.500090985558927
aF3.500090985558927
aF3.500090985558927
aF3.500090985558927
aF3.500090985558927
aF3.500090985558927
aF3.500090985558927
aF3.500090985558927
aF3.500090985558927
aF3.500090985558927
aF3.500090985558927
aF3.500090985558927
aF3.500090985558927
aF3.500090985558927
aF3.500090985558927
aF3.500090985558927
aF3.500090985558927
aF3.500090985558927
aF3.500090985558927
aF3.500090985558927
aF3.500090985558927
aF3.500090985558927
aF3.500090985558927
aF3.500090985558927
aF3.500090985558927
aF3.500090985558927
aF3.500090985558927
aF3.500090985558927
aF3.500090985558927
aF3.500090985558927
aF3.500090985558927
aF123.29878200228717
aF123.29878200228717
aF120.95089135720752
aF121.68581784183377
aF121.96487007215408
aF122.12908183136022
aF121.85011568047244
aF122.00288922366317
aF121.96465187692675
aF121.93213919649166
aF119.68647942319329
aF117.94364096196806
aF117.69884888017104
aF118.1411190848991
aF119.97209090018639
aF121.75058436930797
aF125.51281302684487
aF125.51281302684487
aF125.51281302684487
aF125.51281302684487
aF125.51281302684487
aF125.51281302684487
aF125.51281302684487
aF125.51281302684487
aF125.51281302684487
aF125.51281302684487
aF125.51281302684487
aF125.51281302684487
aF125.51281302684487
aF125.51281302684487
aF125.51281302684487
aF125.51281302684487
aF125.51281302684487
aF125.51281302684487
aF125.51281302684487
aF125.51281302684487
aF125.51281302684487
aF125.51281302684487
aF125.51281302684487
aF125.51281302684487
aF125.51281302684487
aF125.51281302684487
aF125.51281302684487
aF125.51281302684487
aF125.51281302684487
aF104.83400881351842
aF109.39580887090833
aF109.35466716384435
aF114.99260901959236
aF113.1534552114495
aF113.1510589853008
aF113.06622993216222
aF88.39136278213374
aF78.62549258693974
aF76.29596157855885
aF65.31326028931565
aF55.63744120555935
aF36.086579269820504
aF24.488114217762536
aF4.258600127687718
aF0.19530732057985425
aF2.4764104745156645
aF2.4764104745156645
aF2.4764104745156645
aF2.4764104745156645
aF2.4764104745156645
aF2.4764104745156645
aF2.4764104745156645
aF2.4764104745156645
aF2.4764104745156645
aF2.4764104745156645
aF2.4764104745156645
aF2.4764104745156645
aF2.4764104745156645
aF2.4764104745156645
aF2.4764104745156645
aF2.4764104745156645
aF2.4764104745156645
aF2.4764104745156645
aF2.4764104745156645
aF2.4764104745156645
aF2.4764104745156645
aF2.4764104745156645
aF2.4764104745156645
aF2.4764104745156645
aF3.8312223736429587
aF2.20531866903184
aF0.8793519142782316
aF0.3284897261764854
aF0.9423148736241274
aF1.9273758998024277
aF2.275661808787845
aF2.2906114523066208
aF2.552511700661853
aF5.189927559578791
aF5.486174284305889
aF7.361305487924255
aF5.537267732899636
aF0.5375225149327889
aF3.5120148711139336
aF4.707465364830568
aF8.378139466745779
aF8.378139466745779
aF8.378139466745779
aF8.378139466745779
aF8.378139466745779
aF8.378139466745779
aF8.378139466745779
aF8.378139466745779
aF8.378139466745779
aF8.378139466745779
aF8.378139466745779
aF8.378139466745779
aF8.378139466745779
aF8.378139466745779
aF40.10024902142634
aF41.45226661398614
aF42.31520595561896
aF42.51967922936636
aF42.7879799917978
aF42.677169436833665
aF42.05747398550755
aF34.606104501102536
aF34.606104501102536
aF29.48453217733077
aF21.768142469946785
aF14.958627680586163
aF6.783182152891933
aF3.934273773377022
aF1.600280781273235
aF0.17460463754832745
aF1.6332882004790008
aF1.6332882004790008
aF1.6332882004790008
aF1.6332882004790008
aF1.6332882004790008
aF1.6332882004790008
aF1.6332882004790008
aF1.6332882004790008
aF1.6332882004790008
aF1.6332882004790008
aF1.6332882004790008
aF1.6332882004790008
aF1.6332882004790008
aF1.6332882004790008
aF1.6332882004790008
aF1.6332882004790008
aF1.6332882004790008
aF1.6332882004790008
aF1.6332882004790008
aF1.6332882004790008
aF1.6332882004790008
aF1.6332882004790008
aF1.6332882004790008
aF1.6332882004790008
aF67.07457837451162
aF66.48052697591359
aF65.79545010883771
aF58.65667245335552
aF59.297045190092696
aF59.87902150702299
aF56.65394180005768
aF49.350765595041736
aF43.286669608769095
aF40.019689493653196
aF26.733769679735506
aF22.883547234717074
aF13.201998490528734
aF3.5223228340037167
aF0.9860230362974107
aF5.001179387792945
aF4.302608273224905
aF4.302608273224905
aF4.302608273224905
aF4.302608273224905
aF4.302608273224905
aF4.302608273224905
aF4.302608273224905
aF4.302608273224905
aF4.302608273224905
aF4.302608273224905
aF4.302608273224905
aF4.302608273224905
aF4.302608273224905
aF4.302608273224905
aF4.302608273224905
aF4.302608273224905
aF4.302608273224905
aF4.302608273224905
aF4.302608273224905
aF4.302608273224905
aF4.302608273224905
aF4.302608273224905
aF4.302608273224905
aF4.302608273224905
aF4.302608273224905
aF4.302608273224905
aF4.302608273224905
aF4.302608273224905
aF4.302608273224905
aF4.302608273224905
aF4.302608273224905
aF4.302608273224905
aF4.302608273224905
aF216.29111778538208
aF216.29111778538208
aF216.29111778538208
aF216.29111778538208
aF216.29111778538208
aF214.11686655163066
aF208.33963176736142
aF178.5783110054989
aF174.86391036679606
aF171.0818006743809
aF153.52846705945456
aF149.727053400428
aF136.01120531651327
aF129.96109098031292
aF121.60435299137444
aF118.85128596796328
aF118.85128596796328
aF118.85128596796328
aF118.85128596796328
aF118.85128596796328
aF118.85128596796328
aF118.85128596796328
aF118.85128596796328
aF118.85128596796328
aF118.85128596796328
aF118.85128596796328
aF118.85128596796328
aF118.85128596796328
aF118.85128596796328
aF118.85128596796328
a.