(lp0
(lp1
F14.30328950438067
aF14.30328950438067
aF14.30328950438067
aF14.30328950438067
aF14.30328950438067
aF14.30328950438067
aF14.310863048195621
aF14.370834363889763
aF22.580954407421668
aF31.228764489913445
aF1.4035179341976578
aF5.381921220740742
aF34.020560537341176
aF38.03895423420958
aF49.235792820197645
aF74.22239748796136
aF75.2526387178468
aF28.255769561574237
aF26.03804091122374
aF25.05715271753146
aF25.05715271753146
aF23.830400845431676
aF23.024709796027704
aF21.513493460806163
aF20.96898755592853
aF11.349656032781244
aF7.639663366745392
aF113.59718718548429
aF114.39959976801875
aF120.52764162352268
aF128.83548516940058
aF17.258036484788416
aF10.979644454498695
aF9.428193769681732
aF8.765558343793115
aF7.855263940767974
aF6.730506134438504
aF6.616314070556669
aF6.5238104229866805
aF6.231140713488683
aF10.901338321419818
aF40.817538495235446
aF66.84273090081855
aF77.05342415586942
aF77.05342415586942
aF77.05342415586942
aF5.8786451826833845
aF5.377734494535642
aF5.436848643044027
aF5.772181216128111
aF5.8786451826833845
aF5.8786451826833845
aF22.339275628741543
aF25.62074456865904
aF49.018996437829486
aF55.86415524081278
aF36.63221817937796
aF10.369067519006759
aF36.68669323040962
aF43.09344640937489
aF45.35545874253944
aF8.354920411700347
aF8.330866043280796
aF6.691270456090167
aF6.678914341720088
aF6.829077260180868
aF6.734930227198369
aF6.759442849439457
aF6.781450284125137
aF13.786746219293198
aF11.41345025847492
aF7.9686232843776255
aF19.665280459664395
aF18.25776692105488
aF10.938891816897224
aF58.98054875596263
aF58.9883395843105
aF58.18683400509891
aF58.38916752166794
aF58.46134740994512
aF58.40016381952909
aF66.24023123660724
aF66.24023123660724
aF71.49420926247211
aF80.03594506830214
aF63.4996617721845
aF73.26947544172144
aF20.779292034790135
aF9.508324556475277
aF21.09301248949071
aF18.9855450249847
aF18.17159030591071
aF17.72193438254206
aF16.956269009212196
aF16.663290259284956
aF16.25178019231694
aF16.24406379347831
aF16.23435772330525
aF17.896126770046386
aF21.25607724398601
aF56.07294543546558
aF64.00609808204179
aF41.05937397905819
aF86.27615987654453
aF94.74840426029907
aF6.391507554932967
aF6.223027203107083
aF6.223027203107083
aF6.296314365888845
aF6.271380496683427
aF6.235708177862002
aF6.189993481301713
aF19.49699743510705
aF39.42992781216851
aF24.251588563867006
aF17.43247059482061
aF9.410778924326863
aF5.607263496596905
aF5.607263496596905
aF9.588565443095165
aF13.423012996826943
aF12.1596689488542
aF12.079836262341098
aF12.094511153525074
aF12.131543950231478
aF12.765048906077483
aF16.851927313044445
aF8.821915229108592
aF4.03618421597644
aF1.682918641897289
aF12.79855638697853
aF24.268236340971796
aF34.73990325216717
aF49.02902485410352
aF63.51965919969488
aF14.587321005890301
aF14.587321005890301
aF14.587321005890301
aF14.587321005890301
aF12.060543900983486
aF5.471657099803375
aF23.982770548966784
aF31.274568078910974
aF36.693326358512735
aF52.201737271249236
aF60.57581667747172
aF67.99189666305189
aF85.95992942470905
aF97.65108952358439
aa(dp2
I0
F26.22746684048232
sI1
F49.29249576514342
sI2
F28.674023234672173
sI3
F23.9468503905673
sI4
F9.942259345249818
sI5
F54.90445227967766
sI6
F34.569601089231774
sI7
F11.643720949964145
sI8
F19.36012984345326
sI9
F38.015187112200344
sa.