(lp0
(lp1
F14.30328950438067
aF14.30328950438067
aF14.30328950438067
aF14.30328950438067
aF14.30328950438067
aF14.30328950438067
aF14.368314565310612
aF14.370834363889763
aF16.346712342200725
aF11.955509974904265
aF36.54366267873985
aF5.381921220740742
aF75.08987987221042
aF79.03916251440404
aF49.235792820197645
aF74.22239748796136
aF14.499925483626717
aF15.99212406604741
aF16.742744291825538
aF17.46107143890496
aF18.637972919450785
aF19.421658679630983
aF20.913428689644732
aF21.80590835290043
aF27.811339166339266
aF7.639663366745392
aF112.65718300794474
aF114.39959976801875
aF120.52764162352268
aF128.83548516940058
aF17.258036484788416
aF10.979644454498695
aF9.694489872077996
aF8.765558343793115
aF6.812926410773739
aF6.730506134438504
aF6.616314070556669
aF6.575086664584657
aF8.7026625885066
aF10.901338321419818
aF9.332678650643217
aF28.395351971402285
aF10.308796568655485
aF10.308796568655485
aF10.308796568655485
aF5.8786451826833845
aF5.8786451826833845
aF5.436848643044027
aF5.772181216128111
aF5.8786451826833845
aF5.8786451826833845
aF22.339275628741543
aF28.71060973107308
aF51.75303715204695
aF55.86415524081278
aF36.63221817937796
aF15.298548506002327
aF36.68669323040962
aF43.09344640937489
aF45.35545874253944
aF8.354920411700347
aF8.330866043280796
aF6.759416020078386
aF6.678914341720088
aF6.829077260180868
aF6.734930227198369
aF6.759442849439457
aF6.781450284125137
aF13.786746219293198
aF11.41345025847492
aF7.237187894319061
aF19.321756515007493
aF18.25776692105488
aF18.25776692105488
aF8.587469995895718
aF13.314084970536957
aF12.872419399787628
aF9.751192183492384
aF10.953796914462883
aF10.543353336602689
aF15.032466939557388
aF15.870345521696393
aF7.034362532664904
aF40.857421376731516
aF11.431474739169548
aF21.58500511496416
aF16.926238783591973
aF27.959471758777422
aF7.756401233821586
aF11.581018949804385
aF20.187732826587
aF18.17159030591071
aF17.72193438254206
aF17.232547518160423
aF16.42039038817118
aF16.247448523766543
aF16.24406379347831
aF16.23435772330525
aF16.858590697301715
aF21.49579960790269
aF11.144012209715923
aF9.497728459909457
aF3.4579479260395845
aF6.505173880536874
aF10.566263112719545
aF6.19480379128792
aF6.188208418505416
aF6.223027203107083
aF6.316370872127386
aF6.2683504102422
aF6.235708177862002
aF10.207695003828707
aF17.6680181014114
aF28.401535262943128
aF11.954193127752562
aF17.43247059482061
aF9.410778924326863
aF6.770597070968955
aF3.2532863971198847
aF5.61553925813295
aF32.24774621662745
aF12.88884841044895
aF12.079836262341098
aF12.094511153525074
aF12.131543950231478
aF12.016925088347799
aF14.292002413120812
aF20.571608165721706
aF4.03618421597644
aF8.702583256150614
aF12.79855638697853
aF24.268236340971796
aF34.73990325216717
aF26.892863455712064
aF39.692017877125664
aF14.587321005890301
aF14.587321005890301
aF14.587321005890301
aF14.587321005890301
aF13.983358794389414
aF33.62018645783384
aF14.54573189815315
aF14.54573189815315
aF14.201237879371014
aF55.947436074091
aF8.468229806675817
aF9.971609028775426
aF10.786181134709008
aa(dp2
I0
F28.898370304177714
sI1
F46.95326757314307
sI2
F10.779398911563343
sI3
F24.697136894018954
sI4
F10.272744144188241
sI5
F15.564603583710786
sI6
F14.532372090403154
sI7
F9.876038840962472
sI8
F18.63022442969644
sI9
F18.032229768901
sa.