(lp0
(lp1
F80.49229193995279
aF72.98242540254994
aF226.66845246597683
aF317.59719075243004
aF312.83130650468536
aF414.2924084074799
aF152.99385595401606
aF103.41989684241997
aF128.15466088728778
aF96.58354508373483
aF39.58721149687057
aF62.05640032483882
aF36.367255300936264
aF39.00280083600115
aF29.40970780522899
aF903.5586626079471
aF766.9121565041389
aF777.7750050181646
aF711.9930562616553
aF652.0809539192535
aF590.9881937223078
aF580.1643788352345
aF399.13829510273604
aF382.1445436339263
aF325.43440445637003
aF304.0164135412124
aF244.82951106000272
aF150.89016953191157
aF141.4162187298528
aF209.8152248194805
aF187.40865418712235
aF133.91838534479055
aF130.71994558325835
aF135.08303556239727
aF241.97168082055967
aF160.0592445934682
aF159.6977053922594
aF10.98329874603742
aF36.885281863105924
aF41.847302958288566
aF18.890550189153483
aF167.40636825574015
aF219.42726014772097
aF92.8212650924336
aF47.86754478718018
aF135.24562879627828
aF1.8079744275915148
aF208.93420154275643
aF162.71112376525053
aF163.4887293006309
aF167.94225085805593
aF173.29584378216603
aF173.77519346815583
aF135.324246057877
aF135.324246057877
aF101.1280944499439
aF101.53832498835456
aF48.909481138668724
aF14.7655486840564
aF97.76833997369518
aF97.85400685348098
aF84.4111167719703
aF37.58460044258496
aF20.884352346434905
aF5.63848689578107
aF36.65683067128628
aF64.90467747812865
aF50.723428931944866
aF44.12620917772918
aF51.6949992241382
aF67.5031838710285
aF70.09015315548187
aF72.29821978277599
aF65.06845466559008
aF58.14461013932341
aF58.14461013932341
aF97.12648624546138
aF35.749196131470995
aF37.87011495688992
aF53.16428623527527
aF79.15969569481736
aF108.5948129005052
aF117.03023098731673
aF109.160841728023
aF64.04083373752921
aF55.60641520843379
aF40.502519059594455
aF18.57242226281634
aF12.204743250771388
aF13.533279538652303
aF31.526558234965744
aF56.39351778232676
aF45.83145160553401
aF59.490467050543565
aF29.572861706087178
aF19.253379520777077
aF7.3847469107947585
aF8.108971347271732
aF8.108971347271732
aF8.108971347271732
aF8.108971347271732
aF8.108971347271732
aF8.108971347271732
aF8.108971347271732
aF8.108971347271732
aF84.47615966244621
aF84.47615966244621
aF90.31410369129038
aF90.31410369129038
aF90.31410369129038
aF99.00100243448139
aF99.09190051261679
aF70.73966378636787
aF59.164649946596036
aF55.60301089994657
aF37.4950972205168
aF43.54227507044466
aF46.67021484290957
aF7.679439210670821
aF92.30450724888799
aF114.90904141969955
aF68.78400470330278
aF25.24869012913222
aF14.447837067388383
aF60.22114287127514
aF81.69442738806984
aF119.97138161515562
aF105.26566085792207
aF96.07861869012306
aF48.436221349997
aF21.632372842559047
aF35.62635415332187
aF3.5318761885530345
aF20.789935383121833
aF126.80632931850302
aF133.72938219865978
aF165.44896252943445
aF191.67939328214402
aF190.6532674463545
aF186.76564247297065
aF208.3881177648985
aF225.50602857362966
aF186.25316220719293
aF97.60551695846772
aF127.17473804592872
aF144.25151036336334
aF191.44841102114012
aF208.17126470317632
aF265.1866141434588
aF261.85457556992054
aF260.54417705094124
aF260.0092505466885
aF258.9047371979922
aF254.97752994987087
aF249.0316818424713
aF242.0961329541632
aF242.0961329541632
aF226.54480640661097
aF225.8537129772481
aF227.8012644852096
aF220.5597397052474
aF207.70993937894988
aF201.18918959866446
aF178.91696593250313
aF170.64330165395293
aF143.72703040752202
aF128.09034182958118
aF123.54985110038758
aF118.22873286471228
aF119.0320626121796
aF123.23017562461128
aF128.39149537328598
aF146.38448345814118
aF159.24857461422354
aF245.17429895609192
aF252.56263545598273
aF168.41486944975995
aF130.6601535867902
aF33.61534987052521
aF9.029673417731354
aF49.28600391538261
aF79.33080303506402
aF152.39044071187283
aF234.75342055923258
aF310.10447900497525
aF363.1018750424646
aF356.89648326732276
aF355.4154289184932
aF252.8287408580814
aF114.26889726916171
aF13.597788656958365
aF104.57142332973945
aF40.95338766056883
aF12.17664629982257
aF132.3201481766171
aF128.58369121411945
aF128.17453943484875
aF127.06699783858288
aF124.70457898759592
aF123.92850316663572
aF126.09990118798923
aF126.09990118798923
aF126.09990118798923
aF132.2824650204342
aF155.24721661972862
aF190.77871319554365
aF191.87628786210436
aF159.4430005119198
aF128.95852792210175
aF149.71720344853443
aF177.61844422752782
aF189.70120059096726
aF197.08765458654352
aF185.51296379874324
aF101.37233034393104
aF75.05917664562024
aF28.07865907043204
aF117.89452714498111
aF127.32584427226274
aF120.48570917349258
aF111.29377172846802
aF103.33873190516348
aF99.37638285330574
aF100.69983845001347
aF100.75971222778773
aF100.56611635487259
aF99.560106107528
aF101.88075295227517
aF105.46254683713181
aF111.30002324680086
aF118.19510569645514
aF116.83384551881639
aF74.28296277026254
aF46.07452106691248
aF31.42553853024916
aF36.95329608151431
aF35.12342725536309
aF4.7089983344828665
aF4.796243860353878
aF21.547532145819602
aF56.9089651606671
aF55.19895846861774
aF113.38782746311287
aF103.40380338970957
aF6.637538633963345
aF31.218639115350843
aF61.92352633680209
aF47.85348815326246
aF23.10792923367474
aF6.193379306117154
aF20.131709064616867
aF4.850859714003291
aF75.58298339917296
aF94.4541849652558
aF68.2182295445337
aF68.2182295445337
aF143.0574772161362
aF149.46119821978883
aF175.03790753605364
aF98.0848835834138
aF87.92681048971171
aF61.97954979984984
aF85.85865283669753
aF6.525411341446179
aF26.06131643569125
aF26.06131643569125
aF58.84430890355611
aF25.707884203256025
aF30.697298741501402
aF59.32873657617393
aF137.13644758739716
aF179.0897983991639
aF215.6210368071093
aF205.65637774023688
aF186.0297959262826
aF102.95358699111542
aF77.46732010824682
aF29.60941259522254
aF26.093749170473142
aF15.795783459907037
aF27.662764767315497
aF57.49887049650728
aF31.14448337839231
aF26.12003178637582
aF59.55470370906563
aF125.28109782098969
aF21.0679804501902
aF69.95648851195931
aF119.54338114615791
aF155.09909892432893
aF51.858713118243365
aF51.858713118243365
aF79.43790166674634
aF4.3627732915002415
aF38.499494357855575
aF73.97064031063364
aF7.239508183771421
aF48.830761315328424
aF119.66750727622617
aF105.43390768509298
aF82.36987142274351
aF68.00093390160862
aF21.437257818289694
aF66.50590931080403
aF15.726328229208724
aF15.726328229208724
aF9.497163508312356
aF23.690678179812025
aF19.46345767667294
aF26.634272655073175
aF53.66201539441866
aF56.10044230286133
aF14.96924836433096
aF14.96924836433096
aF13.606362017703606
aF15.488651314213314
aF5.2763635036887
aF12.389988104154412
aF73.45094859763724
aF153.97387180123812
aF141.2114179001241
aF144.91970303486121
aF78.67096842197206
aF57.73025306490748
aF47.71662311919948
aF26.406591836559244
aF11.71631834900238
aF30.665834006891036
aF39.060289575141425
aF29.40756798899155
aF43.21837556203437
aF102.15155344768976
aF146.86000577255774
aF215.24056170409654
aF212.5959087271018
aF208.59763597909537
aF208.2199789359434
aF208.2199789359434
aF208.2199789359434
aF219.82171610886695
aF221.3351677989845
aF236.47355892586828
aF238.02684091739803
aF244.19619516289634
aF243.12824471337242
aF243.137585443006
aF244.40180160158323
aF221.8290208846487
aF221.9229944547148
aF221.4666890544477
aF221.11385557075664
aF220.2597344527444
aF220.24385840954764
aF220.3926472789467
aF220.6056754976457
aF220.79071459475753
aF220.87010184774186
aF220.86684594396993
aF220.90105223801476
aF171.1921499465071
aF142.97535297836274
aF132.516873447748
aF106.03890746544701
aF97.36724364866022
aF97.36724364866022
aF105.09894313825666
aF123.46888740251957
aF139.66465739322632
aF149.7045229967128
aF159.76340504095478
aF130.1180483395383
aF87.82081123053271
aF76.79920719468092
aF29.085609660598823
aF26.428165868541917
aF41.72438595660169
aF16.772660467131395
aF13.926825890754527
aF13.926825890754527
aF93.47813503181104
aF65.62195053546895
aF18.8313736169863
aF16.62717932623525
aF7.678245778439216
aF24.07184413130838
aF1.780005360046147
aF23.602992558855284
aF62.987314590419665
aF50.34159612166159
aF14.250643832893497
aF6.536186986003886
aF6.536186986003886
aF6.765091390317673
aF53.40060481995748
aF86.015607273239
aF109.63488821527518
aF53.06830643807375
aF34.586729273418186
aF12.595723616453506
aF18.25430678961413
aF22.84439964860816
aF20.945856070312892
aF12.177234531556788
aF10.574566135025897
aF54.39853319451123
aF105.06518468330482
aF152.45580504047982
aF159.3311346628546
aF152.94912950636365
aF123.30395150650013
aF108.0583282101755
aF81.42024584155536
aF28.505421501632274
aF22.534075068100794
aF16.221065464500395
aF13.098670018044428
aF13.098670018044428
aF6.078573014709604
aF65.74759573845922
aF76.19536340254523
aF111.26088644852697
aF138.62638202647042
aF148.5925029843539
aF88.59643741004473
aF71.55197022638343
aF40.22771027430672
aF5.9651440566658485
aF42.05245999610685
aF87.16042001789923
aF127.45416583619527
aF165.826400491392
aF203.56593879187582
aF191.40177551674526
aF173.4216714038649
aF142.08625203722443
aF134.36462586800425
aF135.29321721697315
aF106.7593350350177
aF103.98721968027601
aF102.9776123516285
aF103.30500920643526
aF159.854089342225
aF187.21304134268098
aF230.15309393907572
aF236.4807216955411
aF255.5008292913784
aF275.0278962942283
aF282.51234695250236
aF342.2819057260135
aF345.661594841482
aF367.8074613780397
aF384.57961043749845
aF401.1268498679479
aF402.0817747742075
aF399.21971068589124
aF379.0589506766444
aF297.2105450325066
aF237.1905845059704
aF214.85618420450265
aF199.21740210747717
aF181.3680596408268
aF129.5216153871998
aF106.80866600952724
aF55.76440331080101
aF40.95721798023092
aF31.37984499178231
aF71.90596767770565
aF147.3147112985296
aF138.74162946204297
aF122.57441131271773
aF117.12889328662757
aF117.9309687574084
aF123.55000819494639
aF127.42824684920139
aF143.3538937830552
aF145.14735194546816
aF162.35475001525728
aF162.35475001525728
aF201.66978916163322
aF203.16022044738568
aF222.19682589461158
aF224.65396221058026
aF232.88122598067113
aF233.65441074048454
aF239.52078386204923
aF251.0033143072638
aF268.40188995359637
aF270.5252047608542
aF254.66548924367544
aF258.1888980116166
aF279.79203372026643
aF261.5347599800299
aF263.2435956310861
aF208.23977459792903
aF191.54210394159236
aF142.23334679636355
aF113.181251269266
aF43.05548657722215
aF12.35988807245803
aF12.423519994965789
aF55.983478819683135
aF55.983478819683135
aF16.782274985683983
aF10.890781447690516
aF36.00947843845188
aF36.00947843845188
aF22.913380463470798
aF49.90326385382923
aF88.82663708149218
aF55.45786688799771
aF83.70764944448989
aF83.70764944448989
aF11.053804827754846
aF22.113722454472978
aF54.29443088269198
aF4.774541353384621
aF52.49968080084275
aF4.458434128889759
aF73.57353817377737
aF18.193514956236328
aF70.8009943354419
aF186.19716202590985
aF200.56282597039797
aF155.04033184523257
aF103.06342148279974
aF91.02998607795502
aF56.72711433264104
aF62.46380489411817
aF122.16354857049308
aF182.17213082871515
aF142.98406459021604
aF138.3506105711729
aF92.73042864280319
aF86.16842159526759
aF78.8263854173068
aF64.389091118532
aF11.963382970202186
aF12.11127913504997
aF11.731284067088218
aF73.5079254192118
aF100.00550897304772
aF165.41950439069382
aF167.44573172110472
aF169.55333827901487
aF172.3393074826381
aF172.07356978620427
aF172.07356978620427
aF11.821489788564776
aF13.338418802392278
aF12.980925072640733
aF13.499841004842088
aF14.194384629774616
aF14.290911057140912
aF14.244798562485894
aF14.119482547696883
aF5.8663881563100455
aF37.327297047906086
aF57.70418040863365
aF84.3588461372532
aF98.84619956237928
aF101.2399740633497
aF130.06765945532172
aF138.65742879857828
aF155.7749690339834
aF169.74595234922413
aF181.41820935990816
aF191.8050687196228
aF202.44590753964331
aF211.29453570930903
aF151.83611399469447
aF92.54518124435516
aF65.46569935886099
aF8.799292530739903
aF32.91061759939889
aF16.775031692381358
aF13.926825890754527
aF13.926825890754527
aF72.22267910570082
aF93.47813503181104
aF42.471014813933145
aF29.101326951280733
aF21.449254606326598
aF10.52340001461734
aF21.876930544683642
aF29.06999049444634
aF36.76119131423337
aF25.441362452317854
aF11.899560036964035
aF9.998016191644542
aF33.07264891492181
aF67.49009909537595
aF72.36082737066906
aF95.7174221447301
aF115.81146414569996
aF123.91633055080099
aF124.65636009718494
aF75.04902921531223
aF51.74112120158757
aF12.165629841034125
aF21.13908403440593
aF10.351412351510819
aF8.101743614950758
aF10.550332826072122
aF8.059425599599075
aF8.750470830193567
aF24.085086338304414
aF57.73369310882746
aF64.00279100142622
aF100.4783954441658
aF107.68508575775613
aF62.501835880688006
aF26.83713044397812
aF6.9886671723158935
aF23.325276274168637
aF14.203168042122146
aF13.098670018044428
aF48.47041722892842
aF53.53248254178404
aF21.990327337295934
aF99.70535905955606
aF116.71877820191291
aF130.02282314866787
aF159.55130782311937
aF169.259152913557
aF137.22037971434918
aF86.59526571383296
aF26.815318493865764
aF9.794911634955362
aF55.5016219979245
aF91.75899715769857
aF131.3970915717816
aF170.80321106760445
aF164.26774938900346
aF159.38297170891286
aF118.91903512283952
aF118.91903512283952
aF107.08365718675459
aF104.53195116561419
aF105.61047034634322
aF158.60710469026134
aF202.9497347900131
aF209.2957120014059
aF244.98525406133902
aF256.56159506346665
aF263.47491579834235
aF284.3794699251327
aF334.9748326892233
aF336.6493015601999
aF346.1191931763852
aF369.2172957015625
aF384.6409242673868
aF397.3078917565189
aF395.300009675907
aF415.69859694227034
aF421.2965528484199
aF423.7546195299728
aF365.3667332309803
aF309.72543980972165
aF252.76953848003427
aF237.5489180891989
aF205.52429977669007
aF202.07603543361594
aF160.78517658605156
aF105.68305914325249
aF62.05603594533187
aF17.82891788202362
aF19.740211787836177
aF32.27614701243017
aF22.67514197270494
aF67.59995849420064
aF117.59377120156952
aF117.59377120156952
aF117.29865288638963
aF124.88800644327029
aF131.2166738026888
aF140.18572854142354
aF159.52197683221007
aF176.06354518981684
aF183.5171444808658
aF197.5241265101462
aF211.66951256167877
aF226.23175078050065
aF236.05715457264628
aF236.05715457264628
aF252.16913923694852
aF252.16913923694852
aF268.21835953690106
aF255.48484357237336
aF255.48484357237336
aF260.48129631457357
aF261.84233234129607
aF264.2900149296547
aF271.3698449026072
aF232.36167977783714
aF192.8201524056461
aF139.04809514528654
aF117.74779788596194
aF12.797569712786624
aF6.031525187664592
aF15.115647104048284
aF58.879224843706496
aF14.157014219796055
aF16.90029000914439
aF18.33395277526481
aF15.57988585494875
aF15.065509656714761
aF34.01009797363232
aF14.653870156603062
aF61.86625311244031
aF40.82914090279552
aF14.102553824562271
aF10.630084896084325
aF21.389106238958988
aF35.83551218770124
aF44.69993860538649
aF22.50672367204826
aF50.943043550482095
aF4.66140398201454
aF76.39895723556612
aF80.39933291074546
aF58.707655529850975
aF51.01200058677701
aF7.885738018940034
aF64.85294698150382
aF122.80166995680128
aF182.15785269958016
aF242.1710201104433
aF242.18960440555966
aF190.56233044994758
aF165.66979915840932
aF156.24423335318934
aF138.5688270782573
aF108.6404929318453
aF91.22641756928935
aF81.64989328375185
aF52.401566963037126
aF43.95815042805454
aF16.515584588857024
aF10.59331254891522
aF72.77250521230698
aF99.65153084387084
aF166.6573577350996
aF165.96652985661012
aF167.2158685408387
aF168.4324132950537
aF168.25897211312179
aF188.29721282617643
aF194.40054620876577
aF194.28217639955736
aF192.4885093775455
aF189.1304290973407
aF180.57596072793567
aF153.674105944823
aF148.23910093720528
aF47.410131224568026
aF47.410131224568026
aF38.646609771857754
aF5.766677988271356
aF16.422979144940943
aF37.36610779008095
aF16.347327238636502
aF13.941389879238299
aF15.43612048604153
aF13.978235830172384
aF60.55214703072678
aF86.8399829400694
aF95.2349454971043
aF111.55428903930327
aF135.01697962895938
aF142.94456412906243
aF165.16240444106666
aF180.08374139504818
aF120.2855220247382
aF78.23915548432042
aF78.23915548432042
aF71.18375713789413
aF17.296496610406223
aF51.54276865149527
aF94.23214388211576
aF129.31177726765526
aF183.4742524329655
aF220.20080285137348
aF281.4587677109097
aF323.0016750905604
aF373.11369844556833
aF359.65462918038924
aF348.0830572941009
aF327.30826692253135
aF313.8847607833819
aF300.7222219593665
aF281.81525684945547
aF272.26048443862084
aF245.79838000373272
aF237.88828018680505
aF225.2930907966128
aF203.26151398940107
aF194.2172740133763
aF179.97469262720256
aF161.27668996589043
aF145.48280850063344
aF126.70345820850429
aF118.30693546443744
aF87.12470418620471
aF70.80042373905276
aF46.604917350977274
aF35.333746297137154
aF27.726913152607
aF13.454348392228365
aF10.410753094516998
aF34.064350576079846
aF36.350390126607394
aF38.21419345520702
aF39.57861923620788
aF40.57044903624298
aF67.68943585894961
aF67.68943585894961
aF67.68943585894961
aF50.584730203543465
aF12.597695168214857
aF33.34549274974129
aF48.90318580022213
aF75.41646062167146
aF120.20669504554321
aF135.64754152202434
aF132.8030019139642
aF102.03243644152558
aF97.82162582981648
aF98.97897050894635
aF37.41956543424851
aF17.30194830605686
aF42.69841537541394
aF12.054345053027342
aF14.570338409260511
aF49.15901055464846
aF78.96311719350182
aF84.01175276968308
aF58.81385317208442
aF52.99129074837895
aF20.964191949952305
aF28.194039101020206
aF12.110264553946687
aF13.27009743318146
aF30.26545108871792
aF50.95038144727654
aF50.95038144727654
aF85.4949448595324
aF74.23588710104558
aF35.706084079745565
aF60.432865954951346
aF83.16677211380302
aF97.23935667082155
aF68.56747275959256
aF64.23522608410128
aF35.55225307876358
aF21.109820740362334
aF13.10641065690636
aF13.919186631356242
aF13.919186631356242
aF13.919186631356242
aF13.919186631356242
aF13.919186631356242
aF13.919186631356242
aF13.919186631356242
aF13.919186631356242
aF13.919186631356242
aF13.919186631356242
aF13.919186631356242
aF85.9496435169268
aF168.07592405596318
aF128.24037368211194
aF128.24037368211194
aF128.24037368211194
aF85.33373280135275
aF63.28457550253377
aF42.77121470867427
aF31.04758652251757
aF15.80721258974978
aF46.03722080482695
aF65.1833941309888
aF34.7748812541247
aF57.89590959874505
aF57.23902307106465
aF83.64425815386534
aF124.00208078243531
aF101.59149242721621
aF122.40223095711514
aF143.09689950776587
aF134.7244653266139
aF119.16100678281302
aF109.57432785840811
aF88.9920997908643
aF61.94430791863332
aF51.487716888063204
aF51.487716888063204
aF9.660250600254518
aF12.629209818922982
aF9.372006709067152
aF29.29033285633212
aF22.392070980115832
aF13.988707843940906
aF34.44482421912083
aF85.27636622484108
aF147.0281425358353
aF155.831707528008
aF178.6504512888856
aF179.17034762516298
aF179.33389065341245
aF162.24932946809497
aF161.37309753949557
aF8.868931782862907
aF30.491130568382594
aF10.61561035712739
aF25.746936166496855
aF27.487758908932463
aF42.567047822270226
aF70.91179103435384
aF79.73062834828795
aF91.30144278316749
aF91.30144278316749
aF128.27321324782397
aF151.04432241560772
aF138.83213154670477
aF174.10054643982036
aF182.507646769707
aF188.20942307356987
aF194.8198768720604
aF200.81336867100097
aF220.7474246185407
aF244.29683360527252
aF250.01649279137015
aF251.67847590918302
aF261.8320773902764
aF271.5143301386858
aF274.1723901828639
aF286.0675959951207
aF290.70649074298206
aF285.12894109395836
aF266.19087612197
aF251.16466385260858
aF238.934117198502
aF208.92934876196705
aF198.52684454598747
aF179.61034503812598
aF166.07882350766107
aF135.39590046376503
aF93.13477544632622
aF70.79736465465223
aF42.08496083160628
aF13.27009743318146
aF36.8272942550668
aF57.23902307106465
aF34.25620804184336
aF29.039178611957357
aF50.762092503253065
aF65.59382700264278
aF78.88191719906295
aF96.17030183066888
aF81.17746433465346
aF73.69755544375987
aF60.951640805535
aF12.494879114080161
aF51.487716888063204
aF51.487716888063204
aF32.6761871598436
aF8.56399951794182
aF13.934114304996044
aF3.4604315288263954
aF7.004811094662394
aF15.936993082057386
aF41.34176361914944
aF106.24229127295575
aF163.41395289865102
aF168.6335497673351
aF175.16793605724752
aF178.98907319250588
aF164.2606849316552
aF163.1624096018271
aF162.1083687414266
aF162.1083687414266
aF12.237244043277553
aF12.237244043277553
aF11.753050053093094
aF11.753050053093094
aF49.70652324983276
aF60.99933612326169
aF77.8513259794392
aF96.60124161027636
aF110.75318628806438
aF126.25306998204466
aF137.0907190468512
aF167.22639353716266
aF167.22639353716266
aF187.1194827757004
aF159.1072115163584
aF186.1850381673174
aF129.06490688366065
aF91.83073192343646
aF92.99955302793427
aF42.072479715922675
aF21.44594213320733
aF86.55967510617036
aF126.45988543753954
aF126.52017158453705
aF36.36331409186349
aF16.274982611817386
aF11.180900019133517
aF4.909467971735947
aF8.431278575010706
aF8.144393382475824
aF9.137441154694647
aF46.278826115436814
aF21.768973055301338
aF23.89686406743855
aF23.283069165009557
aF23.724625661522627
aF28.786194176353977
aF28.607634712655113
aF28.16768820118336
aF28.16768820118336
aF26.818547539282818
aF25.0752082334735
aF6.359730111648952
aF6.359730111648952
aF7.116054946189432
aF23.76780062000797
aF53.921033863864366
aF24.27977550517434
aF6.88021921756718
aF7.004371238461665
aF7.004371238461665
aF7.004371238461665
aF7.004371238461665
aF7.004371238461665
aF7.004371238461665
aF7.004371238461665
aF7.004371238461665
aF7.004371238461665
aF7.371656969475997
aF7.371656969475997
aF7.590671331740734
aF94.6882692224611
aF95.23325369210012
aF94.77005504028729
aF94.95953623858234
aF94.95953623858234
aF94.95953623858234
aF58.40048884076145
aF57.50885917783917
aF96.23527529010038
aF129.7378051404276
aF171.7331228401459
aF213.89865094993405
aF279.720349055138
aF321.72012848639315
aF321.72012848639315
aF321.72012848639315
aF321.72012848639315
aF321.72012848639315
aF321.72012848639315
aF321.72012848639315
aF322.36472470150875
aF322.36472470150875
aF323.2941716470154
aF405.57721335215444
aF413.7522170867223
aF419.85365654594943
aF423.4626865822704
aF423.4626865822704
aF424.01153752892424
aF420.9631321251246
aF408.5093277375574
aF423.97837246689465
aF360.7680602290517
aF350.87497543356653
aF326.0444180312221
aF297.7777772791964
aF288.15880177846003
aF268.1480550030495
aF247.2233556134887
aF263.41234520405897
aF200.88052736978585
aF181.02620132428038
aF161.76264920494538
aF143.89828245298975
aF135.58135082290855
aF117.25002601202885
aF119.24187223879657
aF64.43937512034852
aF46.255601129306505
aF35.680808780512
aF28.13064445182774
aF35.78264805730764
aF57.96545974973498
aF84.3153970479781
aF104.91914092987133
aF123.92573504868169
aF125.83297407156842
aF125.83297407156842
aF125.83297407156842
aF153.12173898450317
aF161.50839600072428
aF166.59209660377434
aF167.36000993323245
aF164.1944814542808
aF148.59831668162767
aF101.33553245130454
aF41.98420319365103
aF9.928531779874461
aF42.14494042405622
aF55.22758983582105
aF36.89740706049669
aF18.85748822420815
aF16.801360234914174
aF53.32448304042154
aF55.81046985155195
aF77.5146393363791
aF100.89231599109961
aF150.34401136974972
aF150.52895310051096
aF173.310675251247
aF185.71885330108105
aF216.61408928669664
aF195.6590252813467
aF148.46832462553152
aF148.46832462553152
aF89.23131877468762
aF90.24180563568035
aF113.53824796906304
aF54.68960718754733
aF6.596528177310761
aF12.183586255342986
aF9.428958458388184
aF16.415419586572284
aF145.75533857432276
aF140.2687810336476
aF103.61960268425771
aF76.3808481347334
aF18.458558003168843
aF37.39322434199192
aF20.315095770893574
aF29.224463758309145
aF45.748181962474995
aF81.84200316427956
aF143.22269343349822
aF120.40382654331401
aF65.5239960064611
aF15.43387334329173
aF82.0188882873051
aF123.30546878449937
aF119.82359647976676
aF100.52746242878305
aF90.45196381741664
aF81.04735561324685
aF47.56884230992708
aF27.967803396780745
aF6.356819381310543
aF14.425038152350776
aF34.55160669935631
aF44.45870260314825
aF64.88576030656283
aF86.65718242603958
aF40.785953731275974
aF16.61438084919743
aF62.82905611448499
aF96.01139315211955
aF68.45591366973757
aF59.3731052899296
aF29.764562792423412
aF19.70370793785449
aF7.515678212042202
aF15.726328229208724
aF14.588466153905376
aF67.89185568686696
aF68.30681662383707
aF4.484344648866043
aF21.122053656298895
aF10.7603509777818
aF24.338817907927474
aF25.73226666249362
aF15.390274860324187
aF82.61850375567674
aF84.55354534332439
aF35.32147581011925
aF35.32147581011925
aF11.535895130736435
aF18.83143628107986
aF36.11603643509101
aF47.30580098568342
aF9.214160946850205
aF33.52816973030835
aF88.12870837862924
aF98.92598823156507
aF79.94890631920349
aF69.7288828667114
aF52.20455884620685
aF34.577329048522785
aF21.189566337080148
aF14.028391311562729
aF29.372355326696635
aF49.427528424180494
aF49.184060610561595
aF103.51282221817837
aF90.49215375078353
aF32.952440809082944
aF1.9106603911562923
aF67.72267468304722
aF112.15434523837081
aF151.51020364605603
aF142.06382099237038
aF128.16899138828933
aF128.16899138828933
aF128.16899138828933
aF75.76147923920693
aF53.66982365069406
aF39.76687440519169
aF34.16214553046596
aF34.16214553046596
aF47.99912220562702
aF64.95740971224572
aF81.8700112291844
aF106.90712699849968
aF115.69791881156516
aF133.85141525861118
aF88.73317877973484
aF28.5332576386298
aF49.83350024528074
aF68.25648616741202
aF78.21040121624026
aF66.13695853217371
aF73.82199279696026
aF152.81259782687675
aF142.7075580428275
aF112.48643102481687
aF61.64102597048546
aF15.192839859931482
aF25.160521897617368
aF4.685101231778839
aF17.672150218298867
aF36.61041104131496
aF115.58785606030614
aF135.3337481443978
aF318.3051324575523
aF323.0237296764147
aF397.56294213706934
aF373.44129098980767
aF365.07882750999767
aF360.36405081274063
aF355.7182889056116
aF353.8002670552436
aF354.51389801723445
aF354.59034020107845
aF354.560431676283
aF354.58573513703817
aF57.65563860910566
aF44.467194878372595
aF89.4088816209002
aF163.0319083931371
aF168.35842207255408
aF215.67388737983035
aF276.12657220103216
aF266.41900013814666
aF312.62876970499934
aF292.5538813998691
aF362.66761018807125
aF336.04916600666166
aF333.1931299077968
aF440.8551440397107
aF433.9141529767584
aF353.9713269038056
aF421.043005442239
aF500.4829165842715
aF570.9371440844689
aF681.63038578205
aF678.6615553826736
aF681.2750005308169
aF590.9881937223078
aF590.9881937223078
aF590.9881937223078
aF579.0930006084296
aF547.6238819246674
aF520.2496484560972
aF508.4671055952106
aF499.487000821533
aF476.3530801805544
aF473.44660943380376
aF467.4652241027608
aF467.4652241027608
aF467.4652241027608
aF398.02062233983554
aF379.9866355369745
aF367.147637560653
aF357.2064968828891
aF322.4880509387613
aF303.36383388652655
aF293.01446259500057
aF291.09390041083617
aF48.392178722068124
aF65.45959293679987
aF65.45959293679987
aF29.621660768574937
aF1.4004353564422833
aF10.569803941315325
aF10.569803941315325
aF10.569803941315325
aF14.74126462178165
aF21.652455365438044
aF8.810127524074533
aF11.273999169177273
aF12.84517310696239
aF20.070580544748413
aF9.719442858868268
aF9.719442858868268
aF16.101101775594742
aF0.5924568875928592
aF15.519224554225657
aF15.519224554225657
aF4.039947683799539
aF26.095822525695407
aF14.793350394307797
aF36.06236754906537
aF105.60874458615903
aF143.12143993926983
aF182.22150333556425
aF273.8129489029296
aF246.88972776726524
aF246.88972776726524
aF246.88972776726524
aF213.23134649402283
aF172.37292614258428
aF154.6475751959728
aF204.04332559460784
aF190.92360796733016
aF155.83254406329573
aF129.5113536123679
aF179.8262179051536
aF227.39082161683055
aF169.33251254760904
aF126.09990118798923
aF133.366553003599
aF133.366553003599
aF106.19967513127578
aF133.366553003599
aF20.532030049318134
aF12.014138087901555
aF14.162658403133396
aF9.923249990371367
aF9.25506992923948
aF7.942143391717147
aF9.19115599360427
aF8.288309528513077
aF7.7024070060164025
aF7.7024070060164025
aF7.7024070060164025
aF7.7024070060164025
aF7.7024070060164025
aF7.7024070060164025
aF7.7024070060164025
aF7.7024070060164025
aF7.7024070060164025
aF7.7024070060164025
aF7.7024070060164025
aF7.7024070060164025
aF7.7024070060164025
aF7.7024070060164025
aF7.7024070060164025
aF7.7024070060164025
aF7.7024070060164025
aF7.7024070060164025
aF7.7024070060164025
aF7.7024070060164025
aF7.7024070060164025
aF7.7024070060164025
aF7.7024070060164025
aF7.7024070060164025
aF7.7024070060164025
aF7.7024070060164025
aF7.7024070060164025
aF7.7024070060164025
aF7.7024070060164025
aF7.7024070060164025
aF7.7024070060164025
aF7.7024070060164025
aF7.7024070060164025
aF7.7024070060164025
aF7.7024070060164025
aF7.7024070060164025
aF7.7024070060164025
aF7.7024070060164025
aF7.7024070060164025
aF7.7024070060164025
aF7.7024070060164025
aF18.403154502701486
aF18.403154502701486
aF18.403154502701486
aF18.403154502701486
aF18.403154502701486
aF18.403154502701486
aF18.403154502701486
aF7.70324089038307
aF8.812271439111658
aF8.802388403122091
aF8.052604343256554
aF7.739875790147132
aF7.75454441275899
aF7.942870253326676
aF9.605887319025642
aF11.233489607499864
aF13.860187656085158
aF18.066200214360364
aF15.237422215587038
aF18.403154502701486
aF18.403154502701486
aF18.403154502701486
aF133.366553003599
aF133.366553003599
aF133.366553003599
aF126.09990118798923
aF122.29332171701809
aF130.8406199011344
aF130.8406199011344
aF129.83897181510662
aF128.33817821589096
aF155.90091326332285
aF161.48789723816753
aF194.3186732683571
aF207.14414313537532
aF246.88972776726524
aF210.67679206805
aF199.38963842644125
aF193.12896104152665
aF185.03762572477603
aF183.95124533407133
aF141.89194132158843
aF77.34915314748878
aF35.493747615783676
aF8.50192570596288
aF14.621552696993989
aF42.090025498794006
aF37.68552198688705
aF37.68552198688705
aF37.68552198688705
aF37.68552198688705
aF37.68552198688705
aF37.68552198688705
aF37.68552198688705
aF18.055864968722044
aF18.055864968722044
aF18.055864968722044
aF35.67121525588371
aF23.829286650896318
aF18.28967724520762
aF22.782743200280695
aF22.782743200280695
aF22.782743200280695
aF10.752214709568287
aF13.132746758908125
aF12.793082125248791
aF12.292358721686432
aF11.520484559465457
aF11.05966720904783
aF11.05966720904783
aF10.812712638622825
aF10.812712638622825
aF10.812697365294465
aF10.793205130063635
aF10.699866400753326
aF10.69686527595219
aF10.710404709562688
aF10.707427955687816
aF10.678617731696404
aF10.66401900607926
aF10.653349244183596
aF10.63846168251558
aF10.625690998147551
aF10.617476511641579
aF10.60370199832647
aF10.592393651136916
aF10.583623840638927
aF10.542546705815033
aF10.504373177552967
aF10.505645104359393
aF10.488177673426186
aF10.472199600339293
aF10.448675280918048
aF10.440233279636148
aF10.434070193516758
aF21.122216583921745
aF44.61692193743045
aF51.991149569944184
aF71.75916483958909
aF82.47036607956233
aF128.45055548642813
aF156.41545155969882
aF178.13671011785814
aF211.80196694978088
aF235.4203119813453
aF251.41343252771196
aF270.4359484234706
aF307.665945897449
aF331.54745181010435
aF347.97780375356757
aF303.10418095584436
aF257.6808272930439
aF224.7094082814552
aF178.0247109143019
aF151.51781357045581
aF107.05557999271481
aF32.5888691412881
aF12.18795306865311
aF6.646315154342242
aF21.49924645778465
aF76.69389683257334
aF34.563191092780414
aF17.298926381470384
aF11.491059043609038
aF27.329021291264652
aF44.85234125511484
aF48.12689188600737
aF46.74087908300554
aF44.72207775640959
aF50.522337732193954
aF52.0230590063881
aF65.04431423941047
aF67.84596541992158
aF65.95188586551424
aF66.39600023335971
aF64.77238819551808
aF73.47744805308861
aF14.301258552780501
aF14.368312180966381
aF44.915402506793484
aF14.598564378735459
aF9.134972361646552
aF8.717119920101588
aF9.026898437753438
aF10.77975252819965
aF10.243460451283084
aF9.064036191820339
aF9.035383180598911
aF9.441262160019901
aF9.569543904456282
aF9.341353435161269
aF9.03316941246552
aF8.925684160374747
aF8.864909726843907
aF10.520924199706815
aF10.520924199706815
aF8.772353690004557
aF8.872989218109586
aF8.926988627106631
aF9.026898437753438
aF9.026898437753438
aF9.026898437753438
aF9.026898437753438
aF9.026898437753438
aF9.026898437753438
aF9.026898437753438
aF9.026898437753438
aF9.026898437753438
aF9.026898437753438
aF9.026898437753438
aF138.05281177925272
aF118.92083618806063
aF118.46179554253432
aF118.52106231870137
aF117.29281587429024
aF117.29281587429024
aF117.55209203461177
aF117.8925340800841
aF118.38534631860784
aF118.89490981244028
aF120.59627149683772
aF129.00681831072177
aF147.2931104541211
aF211.32707676409936
aF253.32170576415203
aF295.7219436306674
aF315.60646710905
aF315.4211109622306
aF315.40357165134213
aF315.40202140273874
aF315.3705707085815
aF315.35297245713167
aF315.33113516994376
aF295.34677142185643
aF251.98934446186993
aF211.01490475779698
aF169.06382538870446
aF127.22743827170349
aF125.43194474908736
aF121.85832160848999
aF120.00416198339533
aF121.41497513444158
aF121.4179119807262
aF121.74427601193817
aF121.74427601193817
aF122.29882990964275
aF122.46271933019034
aF122.58035222633083
aF123.77865454671473
aF124.04887163764839
aF122.39475999839433
aF122.40465333170006
aF122.59076136907386
aF122.14066673478352
aF122.3553927543435
aF122.6566650726346
aF127.71936858007626
aF127.39442037638906
aF61.434614762026456
aF31.015694756056764
aF26.358243850240452
aF39.48796484777154
aF32.2591876074294
aF11.43497089075392
aF50.35864182764268
aF55.95699191697458
aF7.517124534749523
aF102.57898735659477
aF119.49897748005428
aF61.071191883273926
aF99.52660401743512
aF105.69939021867796
aF78.04933216472037
aF26.095460458165267
aF36.51965471014544
aF68.31108721739889
aF124.60435348777074
aF125.7571673037545
aF125.7571673037545
aF127.60586347345361
aF62.48296578586687
aF56.69299989712455
aF16.76552581127463
aF11.10044804753988
aF14.784318203503538
aF34.94503838378523
aF73.84290044949563
aF96.62810703941642
aF113.77465572703954
aF119.74487247323746
aF156.5884111887294
aF160.7136224915624
aF171.2020247959208
aF135.3526863204613
aF79.4667581830371
aF59.06301371737463
aF9.24314371910753
aF18.026700868447342
aF33.90444319608684
aF36.87406702097278
aF39.1753535320353
aF38.95011312347078
aF40.18023079256883
aF40.18023079256883
aF42.06448013399786
aF43.18484482960913
aF44.3456074277849
aF44.56662914957138
aF14.77556610521762
aF15.450416290265055
aF14.391794582256264
aF14.391794582256264
aF16.495858532212516
aF16.495858532212516
aF12.891799630874212
aF12.501098430653768
aF41.55075168597847
aF41.070117641556116
aF38.22047740297234
aF5.0374450868963185
aF25.122856109690773
aF19.371144324850682
aF19.371144324850682
aF19.371144324850682
aF19.371144324850682
aF19.371144324850682
aF19.371144324850682
aF59.1745903479281
aF414.75630234846824
aF407.0814697908661
aF399.63809539907464
aF392.41593548381644
aF401.48558338453967
aF390.5049505771298
aF384.42259538940203
aF378.6385491187048
aF376.3719738584689
aF345.6127562951089
aF352.52199591347187
aF338.21870271667643
aF322.73754171043475
aF319.5115678071063
aF316.6375118171672
aF317.7302792981281
aF315.57979793042523
aF248.24607911864166
aF248.90678557978845
aF246.52349020106107
aF246.52349020106107
aF236.267447507204
aF233.51938038483416
aF222.46342174773264
aF150.681844104258
aF147.02692919033518
aF142.53432649176486
aF128.02567647538942
aF108.3959029535995
aF93.62395527300377
aF84.49016588041513
aF81.44091772468725
aF42.22984805974566
aF15.82218418801166
aF80.58796579876598
aF80.58796579876598
aF119.00216007570938
aF139.4451678542418
aF153.73354713027274
aF159.84570206982403
aF164.45481485866472
aF185.64788928317344
aF204.53504283317136
aF257.514816133156
aF266.9774950207874
aF258.29337814064235
aF274.1475759260453
aF272.6965527856562
aF271.1896713467124
aF271.29677508276603
aF241.31772384607032
aF271.29677508276603
aF284.4392039810839
aF284.59012180852187
aF314.5175639400912
aF118.8435710657548
aF27.59168627952405
aF27.59168627952405
aF27.59168627952405
aF40.31635129948587
aF11.384218304403364
aF81.56189475348089
aF127.06940518265128
aF86.5365835494483
aF146.22289056836456
aF199.45302599492751
aF208.86745288260173
aF208.86745288260173
aF227.87338312308862
aF262.05992107991335
aF298.48812502155977
aF270.5103331418978
aF226.99297777179194
aF244.04481476836955
aF247.3416735871806
aF246.88972776726524
aF246.88972776726524
aF246.88972776726524
aF205.5927234176728
aF197.02731750393176
aF197.02731750393176
aF103.59001181822019
aF63.901098574352936
aF16.444630611904714
aF9.873428917192067
aF49.624917452980334
aF65.48104901861805
aF51.17624205646565
aF42.69477503509689
aF25.663820310877178
aF24.004125440714883
aF23.354619248311824
aF22.677988475470148
aF21.14363921608785
aF18.18874439101765
aF17.659615395326842
aF16.395523037718565
aF16.257233001922963
aF15.62547677071202
aF158.80438468989962
aF160.99371059019865
aF169.76543301682935
aF129.73156895778467
aF71.12554222839955
aF29.36587168280935
aF72.40503568159457
aF81.32187908786554
aF89.28309546670661
aF112.5377115471313
aF112.5377115471313
aF146.34448683812005
aF162.3531295468947
aF157.4882589322717
aF210.22762833051917
aF223.51848466978458
aF236.45329235338443
aF241.73394984586366
aF181.86877119988284
aF132.72814691062388
aF101.50380201122282
aF36.70441762377849
aF4.692393567605873
aF14.64417309698874
aF16.119324177717008
aF79.11336037992022
aF79.11336037992022
aF84.68218402092634
aF90.71327316419713
aF98.16679688698646
aF124.38897846985309
aF71.8968114887805
aF7.34769570624095
aF18.92728485700622
aF32.53933796890046
aF12.082867335937106
aF77.00591923360096
aF60.702647595723754
aF29.23802842681062
aF57.61011095603483
aF65.80394019948126
aF88.10919792555545
aF100.13711372288526
aF113.10069017587479
aF137.19887052256695
aF144.16737376802686
aF80.00594986479803
aF23.01624574296316
aF33.6507646687467
aF71.50740396028283
aF105.04526373552649
aF51.5355483324054
aF41.8059467079795
aF23.224163576431376
aF14.195559250534535
aF51.93023972684936
aF39.9475818271517
aF48.84091459307923
aF62.011938931578634
aF91.86151488997872
aF63.216380471040246
aF13.247251638374134
aF42.48437625500816
aF81.19832543711259
aF102.79130902072771
aF81.8092199865969
aF57.685974106160785
aF42.636374582897496
aF22.76699204277452
aF22.76699204277452
aF14.073182861609117
aF16.386431997348044
aF26.607126364377635
aF32.721547743059254
aF38.233459954052115
aF42.65075249011453
aF46.64090937930431
aF51.10777944727735
aF65.91626454051065
aF73.47528243215348
aF474.34316528687884
aF480.631251559114
aF458.0699099781959
aF444.0070159929727
aF426.8048560719607
aF408.7365920241609
aF385.8360625574306
aF314.25280070144777
aF308.91049717067546
aF291.99998670055817
aF296.64769960905676
aF229.3636797708806
aF183.96496327017127
aF145.01508451401656
aF105.86888372860099
aF85.44200351783077
aF1.838850573096927
aF1.838850573096927
aF1.838850573096927
aF44.24866737978048
aF68.73534744569889
aF61.47601899239836
aF134.98893881977247
aF202.06763649782545
aF192.407279981373
aF237.33474667281465
aF240.8717480562934
aF260.189608404269
aF286.75507408831277
aF286.75507408831277
aF286.75507408831277
aF219.5975455155849
aF199.05615766125544
aF199.10874753549754
aF199.18276113434317
aF191.93160237732766
aF190.42964331794101
aF192.00437268886037
aF196.48409828947777
aF194.24740369882628
aF166.78174782480122
aF164.11406856729957
aF165.2592405503731
aF142.29493212910637
aF133.8927838200364
aF119.32923200738509
aF103.45839778083706
aF87.01330937865929
aF75.7933101091302
aF54.37724666690276
aF43.50849720046862
aF29.833688735359384
aF18.03184925118448
aF60.76794137547228
aF96.17871753117726
aF100.08894150633056
aF90.1308924392876
aF72.07930073019683
aF74.74303888683912
aF74.74303888683912
aF22.20695633225616
aF22.20695633225616
aF22.20695633225616
aF20.51390102553827
aF22.20695633225616
aF22.20695633225616
aF3.1877525948587184
aF14.34964522203679
aF19.47260028555704
aF57.042317253487276
aF70.41383806340983
aF99.58395415336994
aF117.68448440598318
aF120.71535399539141
aF106.16273234704558
aF100.9132694038007
aF95.84502199078138
aF95.23150812945264
aF95.62338862400267
aF35.6573961940173
aF7.177496197427455
aF6.992517938560313
aF18.703802619333537
aF26.840532535040328
aF43.30212815456417
aF57.96003325413223
aF64.9356954645381
aF88.24480673024118
aF103.85244723917864
aF84.01832417128519
aF75.56353549751204
aF58.14461013932341
aF97.12648624546138
aF97.12648624546138
aF67.66940841243678
aF84.56285226126536
aF116.7183120445545
aF133.54230223785885
aF131.983736987288
aF151.20474076199687
aF181.964779119525
aF204.99829255100488
aF218.0937962144012
aF220.5592768895813
aF233.1372332201498
aF263.83679304374215
aF294.67095408776663
aF320.6015448251453
aF320.6015448251453
aF317.336737357996
aF328.62537026168917
aF328.9747186854499
aF328.9747186854499
aF328.59520320369563
aF328.9747186854499
aF326.464028741922
aF298.0107344580471
aF298.0299051613453
aF297.7758898724003
aF297.6749550422869
aF297.66055954862145
aF221.39022918673226
aF192.74354888254373
aF171.53210894820413
aF154.9990312998144
aF153.7098640345097
aF255.6123041335929
aF244.50185887944338
aF207.25761912155298
aF187.16586329607497
aF161.33793930219045
aF151.0999178766298
aF136.3618233003968
aF106.67112089496358
aF88.31024793712308
aF78.95895854434586
aF61.4917822627623
aF39.279398953802904
aF34.85734113217722
aF73.8133682902641
aF54.310404457410165
aF77.67991594422078
aF77.51526663116606
aF95.75302972924862
aF66.00415201026885
aF45.2165487128122
aF41.1042607606563
aF4.918426428986823
aF5.938006276128705
aF8.979782206759728
aF9.722041172759686
aF10.741108880605763
aF95.19847329742566
aF112.41033337449217
aF173.1793834689873
aF218.03457689470306
aF218.03457689470306
aF229.4675741537214
aF316.0366126937283
aF300.63408676343573
aF338.90809149579115
aF328.3697328326473
aF327.57920992896135
aF298.5482996585257
aF345.02131911789
aF320.8904778755942
aF329.8743536775266
aF333.08489873218565
aF341.6270449391279
aF321.3026389175781
aF304.86056955719454
aF278.28772243458366
aF268.4212473904731
aF289.0316319768153
aF300.8235981633742
aF315.49504466498024
aF322.55963743419534
aF91.05737507213364
aF91.05737507213364
aF7.691447597766801
aF1.8848694658031777
aF24.244583308618203
aF29.116318460441025
aF34.0171199762514
aF48.52623280638913
aF89.21791773433017
aF105.21761652079117
aF98.71343499034532
aF96.23041851798536
aF94.8659672961268
aF17.424541948937065
aF5.816805786246605
aF5.631612414672586
aF29.015027344923837
aF19.89195420155289
aF13.671266632396094
aF21.023021651288968
aF55.99259191353352
aF57.69260708225231
aF81.21737738425178
aF84.19690105006796
aF58.3147904507508
aF58.14461013932341
aF97.12648624546138
aF124.54120124252469
aF73.7357964486525
aF61.81100300961515
aF69.26211497383565
aF96.6118061490899
aF113.89362717375768
aF116.0109540082071
aF85.84827578162047
aF83.38249368310126
aF58.16628540090229
aF41.05974545218031
aF32.0839073444204
aF21.28889502400539
aF13.521672383031305
aF14.277408579671638
aF17.541778297908206
aF23.425962481375336
aF93.79454486339691
aF15.526259823640666
aF15.526259823640666
aF15.743151869721789
aF10.690982893137855
aF10.183221443460216
aF0.6123018262336656
aF6.807982044215467
aF19.855728919626937
aF4.807838175431176
aF4.452451682670722
aF68.90793391979243
aF85.45085058298451
aF112.9905253412494
aF122.4872664730429
aF122.70773252077171
aF53.84161980613374
aF35.24283371780325
aF9.35554017723649
aF19.082972154268873
aF43.08715059181414
aF17.49582946508641
aF49.80617280560366
aF29.263938137228568
aF198.41583702611837
aF217.69331647571815
aF228.46097444157147
aF190.19281636853884
aF160.5907593380069
aF109.13851547192006
aF56.941229136119
aF12.237244043277553
aF18.736508961931417
aF14.904409565784277
aF13.935221981147377
aF11.669023536634436
aF11.852046720039233
aF11.928856935864465
aF11.58413352166913
aF99.59886516288628
aF99.59886516288628
aF99.59886516288628
aF99.59886516288628
aF99.59886516288628
aF99.59886516288628
aF23.484129189574723
aF3.780694086148684
aF8.427797667413673
aF34.50233530858943
aF15.434712254514881
aF8.751578815759153
aF34.16452107066459
aF4.713022081158791
aF2.7055695296889937
aF9.807883984691586
aF17.48758952799263
aF24.723440255205688
aF25.680778237214096
aF9.565232059270029
aF11.496203001688363
aF42.97183692304657
aF84.42542280429183
aF137.49424053067045
aF204.34605354249808
aF173.49707596360895
aF159.72964493799375
aF147.09278236365535
aF138.99362735444745
aF140.20632349997288
aF100.78316634795947
aF75.62089657900128
aF57.9230142062204
aF51.487716888063204
aF51.487716888063204
aF51.487716888063204
aF29.162872697680868
aF8.386845030874122
aF32.35338270040226
aF29.250531187610935
aF13.170036844293907
aF8.084889262308787
aF56.84224170105709
aF139.332144286379
aF147.0046930148075
aF128.4655564023884
aF167.9372148426833
aF170.1320507915553
aF204.38213270270188
aF198.20216300145648
aF179.11425989234417
aF189.3402819656624
aF174.48497116228282
aF182.48850585474
aF167.08101537505294
aF168.8360858494908
aF193.5655239563426
aF149.87990897814686
aF156.99797967420815
aF95.97333820618455
aF100.90265652462936
aF95.1576099880557
aF91.6502943864395
aF93.09814334251622
aF78.7400471882528
aF78.7400471882528
aF61.89527340967315
aF53.76069343264877
aF51.41731298073167
aF37.05361385814514
aF37.05361385814514
aF45.91758378691561
aF19.064508272022774
aF27.10014483035482
aF25.829677069996908
aF16.058754533054834
aF12.358937233202397
aF10.418746339873842
aF10.63490394017802
aF10.63490394017802
aF15.932146986102884
aF15.932146986102884
aF11.046590356415626
aF24.131296273887838
aF36.49274481199449
aF35.23375596949609
aF41.144285166186485
aF38.77457453090426
aF9.907475101048158
aF4.4033111200066655
aF4.4033111200066655
aF4.965476449327193
aF2.7543600113030466
aF2.7543600113030466
aF2.7543600113030466
aF2.7543600113030466
aF2.7543600113030466
aF42.24642119685461
aF17.923694344195248
aF26.119797764977697
aF43.219043442766704
aF43.219043442766704
aF43.219043442766704
aF41.766478756995376
aF128.8218901958238
aF115.08017590838766
aF114.30803847283819
aF137.91826673689027
aF151.12764049686564
aF211.99721865879408
aF227.6053432802789
aF209.56022244940567
aF192.0396412497873
aF184.44792496852241
aF152.24133295147678
aF129.89198897561354
aF132.74376627176537
aF124.4799627608603
aF111.49236412912819
aF92.13831185328945
aF54.15425319741053
aF27.803115328526257
aF7.279374028903417
aF7.279374028903417
aF7.279374028903417
aF7.279374028903417
aF7.279374028903417
aF7.279374028903417
aF55.094293943587296
aF52.09773615207027
aF27.714194849950843
aF10.958483734915813
aF8.842587280712987
aF8.472498676438791
aF8.47427435904854
aF8.518330827605453
aF8.536528514072671
aF8.537444178174601
aF8.561494563540393
aF8.579214375392523
aF8.579564264913571
aF8.595376161140575
aF8.59674924144212
aF8.59916770225964
aF8.60644566415432
aF118.84432177674871
aF118.84432177674871
aF118.7539162352277
aF118.63746227476557
aF118.61865431436796
aF118.62483741517389
aF118.62161015154719
aF118.61840724229536
aF118.61545827788096
aF18.41239572284739
aF18.41239572284739
aF15.228516833058157
aF12.75011355448186
aF22.774741634352434
aF24.55591467929456
aF27.54056459453869
aF27.588588869573137
aF126.09990118798923
aF126.09990118798923
aF126.09990118798923
aF134.49874657397933
aF152.61406737419045
aF150.5361834915676
aF153.49811160097394
aF131.2053145775857
aF160.76255751010527
aF206.33135531768943
aF222.3909301833084
aF277.47421935090534
aF261.3176914545394
aF262.06960357692043
aF262.1071547716484
aF273.82144297459035
aF326.9947317451197
aF277.0659789190571
aF270.20617873410947
aF248.71809464861994
aF244.02445054029315
aF247.7279630854182
aF249.83728719559323
aF250.98872319963272
aF307.4671577047567
aF313.5269240228212
aF324.36311173502804
aF331.80585079928824
aF331.70974102820514
aF329.70205311123686
aF313.5309860984433
aF314.00522382595767
aF313.6374340289534
aF314.0558476005826
aF314.9443972659399
aF315.39165223989227
aF140.95017757878136
aF146.9532667444636
aF151.04732736810107
aF165.69690296571963
aF124.23291065386799
aF43.097068822777906
aF13.414063192041858
aF13.414063192041858
aF15.845522067031695
aF15.845522067031695
aF15.845522067031695
aF36.50271334689649
aF31.761961025095797
aF18.530051814702706
aF7.816106932316072
aF43.72974426549935
aF16.695700425157767
aF24.960988859356004
aF13.45590850453795
aF11.673291059500885
aF55.9094703384038
aF96.3388659532753
aF54.07310511282046
aF18.840290536209878
aF42.73111292974772
aF96.3222812113546
aF100.1562494892032
aF77.1481107248881
aF42.00054476028621
aF42.00054476028621
aF54.41603419948216
aF23.353693270428796
aF25.495011341200915
aF44.04837038085554
aF37.59618257308925
aF69.78119380725006
aF77.7654117040317
aF77.4525669686328
aF66.25447841281898
aF74.3821797050512
aF83.17802562150572
aF83.17802562150572
aF95.00975725132113
aF89.0484219527666
aF93.36233692256727
aF4.592818907939326
aF11.824675142520643
aF11.824675142520643
aF12.507826713461515
aF14.058696581781218
aF18.899330551004965
aF19.706706950827662
aF10.52170848653808
aF5.556264260136932
aF5.556264260136932
aF31.508458865389713
aF37.95719815038935
aF17.376000531577354
aF17.930435246115234
aF23.08980604316345
aF24.001765979593987
aF33.044107342918856
aF43.45732069060087
aF46.42501302321356
aF50.169985627165815
aF54.956213573225654
aF59.76870615672673
aF71.34721354712296
aF82.38109405994534
aF84.65252812768684
aF90.36471510055785
aF91.79304047495548
aF101.07478338027757
aF108.5011295840044
aF112.17700606508521
aF119.44152967983975
aF123.81251829046566
aF131.00267577741386
aF132.493829247577
aF139.7314747922318
aF148.66381849080213
aF154.41690374876805
aF159.74987298655418
aF157.37183562263502
aF169.3938738340122
aF176.88700014827265
aF181.51769257610812
aF184.90408362124984
aF189.11808718320847
aF190.86981317601527
aF200.18628326217248
aF206.2224356801203
aF206.2224356801203
aF212.5679701707998
aF213.60206655760197
aF221.71240702312133
aF230.44847640765917
aF193.3197607965838
aF188.35701804190532
aF181.60129807268123
aF177.46569938205812
aF168.38857032988363
aF163.7285766726266
aF160.8018619757759
aF153.88247815608764
aF152.76707324611442
aF142.8334128881145
aF137.54643157182787
aF135.59284955661906
aF129.7564582610723
aF126.5953125437693
aF122.25816168839876
aF115.79186543355847
aF111.3488437447479
aF104.48534221067037
aF104.16106322137844
aF100.30008208486338
aF92.93354300263805
aF83.19190605569455
aF81.09670263011384
aF74.84601164912567
aF62.685917397720246
aF59.48902378403583
aF50.267242112839746
aF46.91109674872323
aF43.84899145584872
aF40.32643045320307
aF34.4832933141683
aF26.15532941500927
aF19.995212511602794
aF15.570008110811797
aF14.39215700672692
aF13.323023008010528
aF12.453063212114662
aF10.440573818593043
aF12.632437491724797
aF16.16785385983448
aF18.099896492941053
aF21.088817447226038
aF20.557492148101936
aF20.053770978789302
aF18.509117542277938
aF17.026547644784664
aF18.200563284137868
aF21.720266756068547
aF23.133620153957786
aF32.750866218615215
aF33.50652035661643
aF41.16273660591187
aF54.91469268676597
aF62.01786247849368
aF69.78373502816731
aF44.25689292903587
aF16.248526400348595
aF14.056514838634333
aF16.34914533729636
aF25.964614821383353
aF24.47578168789042
aF24.47578168789042
aF18.230337807580728
aF22.03183804545871
aF25.96129751783052
aF6.310527102981938
aF21.10771795211855
aF47.85343281319503
aF70.2459112423051
aF94.1194258588711
aF96.6980363693698
aF198.94649016659974
aF203.14983542951265
aF192.32118637630887
aF172.57089999406205
aF131.23535490755552
aF127.22426194366197
aF121.38310135424622
aF118.88552695226346
aF105.67796734528518
aF101.57569072269959
aF97.97620585156109
aF97.1199144499617
aF35.631928111351186
aF22.91218629593661
aF8.514377550625959
aF52.53341737161625
aF86.27754563137769
aF62.01721953858656
aF54.782967115270836
aF50.010536843843234
aF45.248651705098574
aF3.3801640971372438
aF26.261002262661382
aF32.779594999122594
aF49.21549105784056
aF20.30460772824693
aF61.298945946233914
aF12.640728128440037
aF30.740853336116867
aF58.63582702612044
aF58.5880412463553
aF54.61182030199434
aF54.74684131376734
aF110.93330741803031
aF90.31204939447949
aF93.66792235661885
aF90.63515781992598
aF53.44007007689711
aF43.920138682189986
aF33.818189351541896
aF12.169010090175794
aF17.625068213958436
aF21.052682833582907
aF21.052682833582907
aF9.192967753714608
aF26.58775969161696
aF26.58775969161696
aF65.99151601444318
aF120.98822711884164
aF168.47288711207267
aF233.9996187428837
aF290.335625235536
aF300.8569523630242
aF300.8569523630242
aF300.8569523630242
aF300.8569523630242
aF300.8569523630242
aF300.8569523630242
aF299.57894308833403
aF299.44020538512234
aF298.20288910977337
aF298.02302872593606
aF242.34429409974842
aF193.65772053045063
aF179.54710926475175
aF169.60660563289798
aF158.63187839005923
aF153.77896756596385
aF303.6886629097813
aF269.13564477190874
aF255.75910049959083
aF236.38538067654747
aF217.3383809333658
aF184.80478372273294
aF170.4412206078725
aF141.82836045426083
aF128.39984924983108
aF115.40627096009256
aF92.68502721270836
aF76.54124130223758
aF49.92934326507757
aF15.203612867956506
aF15.330188290007317
aF9.801808830429415
aF32.09300045352475
aF37.52905818449861
aF20.377503348136834
aF11.232059896937399
aF57.23902307106465
aF56.05277329491561
aF62.344911618857836
aF48.48953230226931
aF38.53438305329248
aF37.12542761939914
aF29.33202425103795
aF37.160124199011335
aF11.182986099069025
aF28.285776413376556
aF63.26723719695754
aF82.79481465914355
aF101.45321535276743
aF77.53997928292101
aF48.58933024932831
aF39.82418132070029
aF10.746915602305078
aF7.510921157696709
aF8.17387962077124
aF5.925401815373845
aF63.00264750551035
aF35.32389964057728
aF35.25350010025406
aF10.118979602625318
aF9.664333098531912
aF36.14482547771801
aF36.536100617430975
aF36.536139404244814
aF36.421198541300356
aF36.016345249287575
aF33.952434096937836
aF34.34809090395383
aF14.053145506918632
aF65.55506397342016
aF65.55506397342016
aF91.2524314263534
aF96.25234263056015
aF107.34451662137508
aF109.429325567076
aF118.85225834515929
aF128.43508974219483
aF149.33260771893637
aF162.47156464261815
aF173.72212686938573
aF189.7725664592138
aF206.16733045405599
aF229.32453030257085
aF240.03737174478525
aF257.75270395229956
aF278.3389620531438
aF303.1668701392909
aF320.46351931174735
aF350.6060485810328
aF368.50332554380174
aF377.18611106078123
aF394.4068548797415
aF413.7168039309908
aF365.4186538709048
aF321.69202200477423
aF279.44307228891023
aF212.89431727364936
aF161.47818988114028
aF136.48929748341322
aF75.9316416733748
aF9.212117528599265
aF2.614399484924874
aF18.176476544897632
aF76.20930447802282
aF120.28302621487221
aF158.62069824265484
aF147.9904346494182
aF129.72809791705436
aF126.8093785480368
aF107.82436758910619
aF82.20107126213833
aF73.24102434305775
aF56.71090692165494
aF39.64747490911524
aF31.55640029014617
aF11.409373817982868
aF2.3136623777702585
aF16.50617381691717
aF38.89738314231807
aF14.073212987820343
aF20.664417940721073
aF5.211716659723721
aF25.42750435606976
aF85.52433004263229
aF128.1104943735453
aF127.2360464270932
aF127.20808880302772
aF99.13249013935538
aF83.47843544542437
aF81.14689128616759
aF81.14689128616759
aF81.14689128616759
aF81.14689128616759
aF3.9380620067225465
aF9.898223723367806
aF9.898223723367806
aF9.898223723367806
aF9.898223723367806
aF9.898223723367806
aF9.898223723367806
aF9.898223723367806
aF48.29240066113755
aF47.04059761326486
aF46.84293265819178
aF44.458472814758494
aF22.517440434128766
aF10.838670578866838
aF8.134341636663422
aF8.819388768644611
aF8.525709756173057
aF8.479192873980313
aF8.364182365446343
aF8.355335222894489
aF8.355335222894489
aF8.355335222894489
aF8.355335222894489
aF8.139568174892485
aF8.516607531233594
aF8.941436348605357
aF8.941436348605357
aF8.941436348605357
aF8.941436348605357
aF9.383870532070354
aF9.664542843550665
aF9.664542843550665
aF9.908258064118828
aF9.973650372838451
aF10.180014900347313
aF10.180014900347313
aF10.205034776405121
aF10.557747907558106
aF10.692636088412815
aF10.734511561791688
aF10.734511561791688
aF10.89430371043405
aF11.004540431120525
aF11.333980822484445
aF11.333980822484445
aF11.45866832076821
aF11.463127177415306
aF11.559267568649267
aF11.642132422817228
aF11.672792120676673
aF11.721308282356507
aF11.766268940091535
aF11.766268940091535
aF11.82868086019894
aF11.910727486974578
aF11.910727486974578
aF11.975277600780544
aF11.975277600780544
aF11.975277600780544
aF11.975277600780544
aF11.975277600780544
aF11.975277600780544
aF12.136491729809254
aF12.136491729809254
aF12.136491729809254
aF12.21719340470177
aF12.107935525337524
aF12.107935525337524
aF12.107935525337524
aF11.836165451607467
aF11.737311612098324
aF11.737311612098324
aF11.737311612098324
aF11.733617678307958
aF11.733617678307958
aF11.733617678307958
aF11.733617678307958
aF11.603052938156784
aF11.603052938156784
aF11.603052938156784
aF11.603052938156784
aF11.50457320121639
aF11.422567242015283
aF11.20596498457312
aF11.131086418691437
aF11.107937544971582
aF11.038163440540838
aF10.889515748784394
aF10.81576849232285
aF10.724767310088964
aF10.716171662313547
aF10.64520543513317
aF10.641606961135418
aF10.587351204300752
aF10.570166457827462
aF10.408479591462577
aF10.349584338709468
aF10.349584338709468
aF10.24777878005772
aF10.24777878005772
aF10.150543939897107
aF10.13828359786408
aF10.13828359786408
aF10.08648863706545
aF10.042602005539818
aF10.042602005539818
aF10.001204091459428
aF9.99729747686551
aF9.99729747686551
aF9.952039726337732
aF9.952039726337732
aF9.916613124158062
aF9.874468790480426
aF9.842956163181896
aF9.842956163181896
aF9.81136191132207
aF9.754508255166638
aF9.725479351340116
aF9.725479351340116
aF9.686008596076116
aF9.658598708589723
aF9.62136828801572
aF9.565003236522442
aF9.534289443464939
aF9.534289443464939
aF9.485073404715788
aF9.484674650089683
aF9.454683125525007
aF9.439442282307587
aF9.425194303148627
aF9.404176791390613
aF9.352435107015733
aF9.33110055978965
aF9.307226780015034
aF9.280899216865258
aF9.264323160428896
aF9.26301822439343
aF9.245960771524896
aF9.236551084218377
aF9.236551084218377
aF9.21000246656222
aF9.210086941750186
aF9.172848546258914
aF9.172848546258914
aF9.172848546258914
aF9.136317958110558
aF9.097245405239635
aF9.082569865532049
aF9.082569865532049
aF9.054151939430286
aF9.044759518163113
aF9.026101769617751
aF9.026101769617751
aF8.981186331600313
aF8.979892375692943
aF8.942548006484527
aF8.93503768733493
aF8.923053840452816
aF8.911518918847039
aF8.903510305469146
aF8.90450024668812
aF8.896491893531515
aF8.867701478751213
aF8.865782547296412
aF8.838602320869793
aF8.831982866139928
aF8.81509446976098
aF8.81509446976098
aF8.802044017359325
aF8.785106741130809
aF8.770849480036041
aF8.758030551350057
aF8.746952986325224
aF8.741232393841424
aF8.714152823569961
aF8.706212721793465
aF8.697670919707406
aF8.674179668189069
aF8.674179668189069
aF8.645421326837853
aF8.645421326837853
aF8.645421326837853
aF8.63542282527583
aF8.626133256786979
aF8.626133256786979
aF8.626133256786979
aF8.60889883138858
aF8.59876675288721
aF8.59082225585535
aF8.59082225585535
aF8.59082225585535
aF8.59082225585535
aF8.59082225585535
aF8.59082225585535
aF8.601130635305081
aF8.596715156101384
aF8.596715156101384
aF8.596715156101384
aF8.58252334499048
aF8.574663244852744
aF8.565376594617147
aF8.5582771134186
aF8.5582771134186
aF8.549574533000753
aF8.542568609273848
aF8.526642266445362
aF8.526642266445362
aF8.516953007597177
aF8.508969430375993
aF8.508969430375993
aF8.508969430375993
aF8.50195574716137
aF8.492057918360144
aF8.489686164724693
aF8.483754107274013
aF8.474076419983719
aF8.465689895689298
aF8.465689895689298
aF8.46524232124444
aF8.459134720985745
aF8.458687156653399
aF8.451591897077394
aF8.440168690558421
aF8.439325764469375
aF8.439325764469375
aF8.433614461739028
aF8.433614461739028
aF8.428215211158971
aF8.421037713792717
aF8.421037713792717
aF8.421037713792717
aF8.421037713792717
aF8.425989233471029
aF8.425989233471029
aF8.425989233471029
aF8.422025457516554
aF8.415867223973008
aF8.415867223973008
aF8.415867223973008
aF8.414255828928571
aF8.409397363549003
aF8.407171654749636
aF8.400566459927452
aF8.400171212699215
aF8.394908624799962
aF8.387763734921235
aF8.388303869976841
aF8.379297934671019
aF8.379297934671019
aF8.373276831633609
aF8.369033661784943
aF8.369033661784943
aF8.369033661784943
aF8.365601997899473
aF8.360568798851261
aF8.315039725979608
aF8.244083092076568
aF8.244083092076568
aF8.18642087641406
aF8.18642087641406
aF8.140452930379977
aF8.076287829113578
aF8.028618281285414
aF8.014557731877234
aF7.967975726173626
aF7.905397353917039
aF7.905397353917039
aF7.833425819306095
aF7.791187132325566
aF7.724996082497347
aF7.700060810723597
aF7.700060810723597
aF7.638749175304806
aF7.606638840018461
aF7.534781230563546
aF7.476832163307493
aF7.476832163307493
aF7.439899358888243
aF7.409657952962414
aF7.409657952962414
aF7.362779502995919
aF7.332112754842386
aF7.279964128502415
aF7.2589131311455555
aF7.2589131311455555
aF7.227485645634156
aF7.227485645634156
aF7.170660706798809
aF7.170660706798809
aF7.11575094180494
aF7.11575094180494
aF7.107149405483662
aF7.050833445916319
aF7.050833445916319
aF7.026558801113357
aF7.026558801113357
aF7.026558801113357
aF7.013155773047676
aF6.998323206559151
aF6.998323206559151
aF6.971210111213242
aF6.971210111213242
aF6.971210111213242
aF6.923999579524167
aF6.9182733309074225
aF6.9182733309074225
aF6.9182733309074225
aF6.891480879830185
aF6.871476661154888
aF6.8252924654673155
aF2.0600057158005662
aF2.0600057158005662
aF2.0600057158005662
aF2.0600057158005662
aF2.0600057158005662
aF6.7749385185369615
aF6.756369802259083
aF6.756369802259083
aF6.7297139092798925
aF6.7297139092798925
aF6.683683127603781
aF6.665133895087421
aF6.642250177854611
aF6.6237100879279875
aF6.623187239049064
aF6.605705778694617
aF6.604208705992623
aF6.586208650894731
aF6.585163444133139
aF6.572122456283357
aF6.555705571600613
aF6.555705571600613
aF6.5413102621982295
aF6.546263494468328
aF6.534202278531967
aF6.534202278531967
aF6.542894952840646
aF6.525656369133743
aF6.512182613835604
aF6.514868153764585
aF6.506483882012781
aF6.506483882012781
aF6.496445851135615
aF6.461325298459779
aF6.461325298459779
aF6.451372743144383
aF6.4328770310501024
aF6.420086504065695
aF6.416794186230684
aF6.382761491198817
aF6.36862378845972
aF6.352475383330972
aF6.3485857247865844
aF6.338118379920156
aF6.329153308871293
aF6.285368184631904
aF6.271632975102348
aF6.267826895048394
aF6.253495768383387
aF6.254320055139837
aF6.225794740688032
aF6.2158742837749354
aF6.206924859160163
aF6.192235701003182
aF6.189540543397582
aF6.189540543397582
aF6.174776320915063
aF6.161063109084009
aF6.144962924430386
aF6.140253650617907
aF6.140253650617907
aF6.1227583263772525
aF6.108665314994992
aF6.090269087779745
aF6.090269087779745
aF6.05870528876243
aF6.040842123360468
aF6.040842123360468
aF6.014960661650983
aF6.014960661650983
aF6.014960661650983
aF5.9820877733629345
aF5.969001720700759
aF5.939363861428126
aF5.93845731324535
aF5.925761151620621
aF5.910756870506885
aF5.899929085234869
aF5.885887840293941
aF5.884492227271903
aF5.871858733117955
aF5.871858733117955
aF5.868981644671228
aF5.876098744781262
aF5.876098744781262
aF5.892869628269291
aF5.911343552444834
aF5.911343552444834
aF5.91765507336569
aF5.931393259370937
aF5.948395535397707
aF5.9637030750505255
aF5.974923012980288
aF5.990677231176174
aF6.003768050196584
aF6.018571430693529
aF6.03024163385251
aF6.046831500405162
aF6.060823590641882
aF6.075769163285489
aF6.079211336546834
aF6.093945381948459
aF6.101313664993896
aF6.1132236972833445
aF6.1132236972833445
aF6.14400288561473
aF6.14400288561473
aF6.166567926517307
aF6.166567926517307
aF6.166567926517307
aF6.1724555669651355
aF6.1724555669651355
aF6.1838003239204316
aF6.1838003239204316
aF6.1838003239204316
aF6.197509400423438
aF6.207211102662747
aF6.207211102662747
aF6.2107889946181265
aF6.22056277478179
aF6.226376191525705
aF6.238092239886627
aF6.238092239886627
aF6.238092239886627
aF6.240622672954355
aF6.2239076878908195
aF6.2239076878908195
aF6.2239076878908195
aF6.2239076878908195
aF6.2239076878908195
aF6.2239076878908195
aF6.2239076878908195
aF6.236438613237359
aF6.236438613237359
aF6.236438613237359
aF6.236438613237359
aF6.236438613237359
aF6.236438613237359
aF6.236438613237359
aF6.244038806601954
aF6.2261074024019125
aF6.224754695382746
aF6.224754695382746
aF6.197743007893317
aF6.199232325327113
aF6.1540937926268064
aF6.134041967449293
aF6.134041967449293
aF6.088350490986237
aF6.086473209519314
aF6.086473209519314
aF6.065707726180359
aF6.065707726180359
aF6.050348304709997
aF6.024894168740782
aF6.024894168740782
aF5.979713343682514
aF5.959501264861632
aF5.959501264861632
aF5.9600190741475805
aF5.943572980914207
aF5.943572980914207
aF5.92119917731442
aF5.897877375213189
aF5.876563887775885
aF5.855482191426984
aF5.835294901344595
aF5.806887294544562
aF5.787251800786946
aF5.787251800786946
aF5.741227669097208
aF5.713385039280676
aF5.695183614455195
aF5.671280074026304
aF5.642822978295526
aF5.62286298826066
aF5.593680019049334
aF5.574562221219849
aF5.543712942815101
aF5.525873143165129
aF5.49829773192218
aF5.495929183766099
aF5.477149789213411
aF5.477149789213411
aF5.477149789213411
aF5.474644745223605
aF5.452995145124713
aF5.4145696943615835
aF5.386481076019149
aF5.336445169278123
aF5.336445169278123
aF5.314575518580265
aF5.289482389873711
aF5.289482389873711
aF5.289482389873711
aF5.2663034017123005
aF5.241461896733807
aF5.241461896733807
aF5.21620169371086
aF5.21620169371086
aF5.194907266586993
aF5.194907266586993
aF5.194907266586993
aF5.194907266586993
aF5.194907266586993
aF5.194907266586993
aF5.194907266586993
aF5.194907266586993
aF5.18371559705344
aF5.18371559705344
aF5.18371559705344
aF5.18371559705344
aF5.1351055408680395
aF5.1351055408680395
aF5.1351055408680395
aF5.10962058404324
aF5.10962058404324
aF5.091588799640393
aF5.091588799640393
aF5.091588799640393
aF5.085980615490417
aF5.085980615490417
aF5.064752878891592
aF5.064752878891592
aF5.042090837032074
aF5.042090837032074
aF5.042090837032074
aF5.018633789100713
aF5.007127521365722
aF4.9946864553326655
aF4.974461554696835
aF4.974461554696835
aF4.970324216572164
aF4.945897752562335
aF4.928466240453073
aF4.90052975866431
aF4.882023828333073
aF4.852534391824144
aF4.831539050152403
aF4.804980293550695
aF4.787993663066535
aF2.3629651739312156
aF6.569645289862805
aF5.857361895885977
aF5.392902929976172
aF5.392902929976172
aF5.392902929976172
aF5.392902929976172
aF5.392902929976172
aF5.392902929976172
aF5.392902929976172
aF5.392902929976172
aF5.392902929976172
aF5.336511655499479
aF4.995464024226883
aF4.5422236216361656
aF4.4316586897337285
aF4.317022140765306
aF4.2162739211920774
aF4.070126056609747
aF3.86491205233394
aF3.8521408810198268
aF3.7091364122598085
aF3.568180362178593
aF3.450817543509561
aF3.387540499130755
aF3.3450473565280228
aF3.267908753580335
aF3.2012057191805616
aF3.145541919054331
aF3.0076244381999544
aF2.9143708194465305
aF2.346708430808191
aF2.8499340266021425
aF2.8021443553822216
aF2.8021443553822216
aF2.6879669936507202
aF2.6551204725925395
aF2.6223388062477224
aF2.6223388062477224
aF2.5981621682974296
aF2.565168471732657
aF2.535662959510648
aF2.5368340088330714
aF1.8324436830246538
aF2.443909769027121
aF2.4336817278797174
aF2.408881606166554
aF2.3776542921360213
aF2.359651180753193
aF2.2674660228403445
aF2.0778828914944176
aF2.0778828914944176
aF2.0105817483171466
aF1.868699022993225
aF1.8184068825493531
aF1.8018302643692137
aF1.7978070740797039
aF1.7976982747315102
aF1.7994715393847838
aF1.8094687492343509
aF1.8094687492343509
aF1.8173551938299721
aF1.8250064979650207
aF1.838119242638072
aF1.8470338216247941
aF1.8619281828616756
aF1.873082433621772
aF1.8771821348480644
aF1.893453610166015
aF1.893453610166015
aF1.9098318272513808
aF1.9098318272513808
aF1.9116404130787972
aF1.926413184445222
aF1.926413184445222
aF1.9931164065915035
aF2.0898789643788835
aF2.1610428303220086
aF2.355494240150658
aF2.355494240150658
aF2.468749843583399
aF2.468749843583399
aF2.4980977601207277
aF2.607161960720469
aF2.607161960720469
aF2.702240472325417
aF2.8229204251301887
aF2.9142756293825673
aF3.125331441152986
aF3.125331441152986
aF3.2477343658343583
aF3.345162456253927
aF3.3583186374401706
aF3.456256925405031
aF3.456256925405031
aF3.4457796909241316
aF3.4084056158752665
aF3.269312893514453
aF3.0181180448438307
aF2.795247629927871
aF2.519853122964569
aF2.399011872684442
aF2.393311928876683
aF2.190642502907538
aF2.0663228202081836
aF1.9997383802573967
aF1.941384487955975
aF1.9082986104791746
aF1.8658892662977529
aF1.8532238178566725
aF1.8238282120685076
aF1.805507979179713
aF1.8005259325206195
aF1.8143326047111341
aF1.8951888979524931
aF1.9110902033801134
aF1.9636058093031068
aF2.0224777512576932
aF2.0224777512576932
aF2.14669198197436
aF2.3387288991604285
aF2.40421469380111
aF2.628230054970476
aF2.6919617079133933
aF2.6919617079133933
aF2.9103305896030167
aF3.0179762548560167
aF3.0179762548560167
aF3.27164165685717
aF3.3798803179975563
aF3.4538851492821943
aF3.4538851492821943
aF3.598008945401401
aF3.598008945401401
aF3.880072193361883
aF3.9835330192340033
aF4.085800530489514
aF4.255457540519378
aF4.255457540519378
aF4.384754573858703
aF4.4207553379919995
aF4.5306099398243935
aF4.678564021901628
aF4.824688566166278
aF4.922979946059815
aF5.05830762894799
aF5.201811576273476
aF5.308728627367369
aF5.34575256838708
aF5.392902929976172
aF5.392902929976172
aF5.392902929976172
aF5.392902929976172
aF5.392902929976172
aF5.392902929976172
aF5.392902929976172
aF5.392902929976172
aF5.392902929976172
aF5.392902929976172
aF5.392902929976172
aF5.392902929976172
aF5.392902929976172
aF5.392902929976172
aF5.392902929976172
aF5.392902929976172
aF5.392902929976172
aF5.392902929976172
aF5.392902929976172
aF5.392902929976172
aF5.392902929976172
aF5.392902929976172
aF5.403654576194224
aF5.471465732441552
aF5.571559173768295
aF5.769787209031142
aF5.90462608356483
aF5.971620704268789
aF6.0895279826279065
aF6.1043338644404965
aF6.234393013579871
aF6.430158654220104
aF6.532422537558236
aF6.735372107981296
aF6.880776905230082
aF6.988948104831241
aF7.058154242501545
aF7.23093022865742
aF7.519255768507519
aF7.598706283681567
aF7.702856745183376
aF7.714876092704963
aF7.830405503226447
aF7.946964545936425
aF7.946122218461139
aF8.056180482708923
aF8.01537896005534
aF7.937805452269079
aF7.7932554351593515
aF7.749539687642947
aF7.7097790862732545
aF7.7097790862732545
aF7.621097048941008
aF7.578058344275048
aF7.537576523713235
aF7.376254336571341
aF7.318960211458624
aF7.2028809475779365
aF7.2028809475779365
aF7.110609220787643
aF7.093995892163861
aF6.965501954920242
aF6.908718526822174
aF6.8561122409232516
aF6.728599989725165
aF6.688571681874707
aF6.6222967308006995
aF6.588640570442532
aF6.588640570442532
aF6.472926733567781
aF6.405977970087237
aF6.340786626070004
aF6.308241195533332
aF6.21595128298856
aF6.182459295322546
aF6.024712984127564
aF5.969738125842893
aF5.932527678306898
aF5.786403323178467
aF5.706510234054262
aF5.617153691594475
aF5.576824961054609
aF5.539453199555914
aF5.5136994935864605
aF5.392902929976172
aF5.392902929976172
aF5.392902929976172
aF5.392902929976172
aF5.392902929976172
aF5.392902929976172
aF5.392902929976172
aF5.392902929976172
aF5.392902929976172
aF5.392902929976172
aF5.392902929976172
aF5.392902929976172
aF5.392902929976172
aF5.740995593786011
aF5.392902929976172
aF5.392902929976172
aF5.392902929976172
aF5.392902929976172
aF5.392902929976172
aF5.392902929976172
aF5.392902929976172
aF5.392902929976172
aF5.392902929976172
aF5.392902929976172
aF5.392902929976172
aF5.392902929976172
aF5.392902929976172
aF5.392902929976172
aF5.392902929976172
aF5.392902929976172
aF5.392902929976172
aF5.392902929976172
aF5.392902929976172
aF5.392902929976172
aF5.392902929976172
aF5.392902929976172
aF5.392902929976172
aF5.392902929976172
aF5.392902929976172
aF5.392902929976172
aF5.392902929976172
aF5.392902929976172
aF5.392902929976172
aF5.392902929976172
aF5.392902929976172
aF5.392902929976172
aF5.392902929976172
aF5.392902929976172
aF5.392902929976172
aF5.392902929976172
aF5.392902929976172
aF5.392902929976172
aF5.392902929976172
aF5.392902929976172
aF5.392902929976172
aF5.392902929976172
aF5.392902929976172
aF5.392902929976172
aF5.392902929976172
aF5.392902929976172
aF5.392902929976172
aF5.392902929976172
aF5.392902929976172
aF5.392902929976172
aF5.392902929976172
aF5.392902929976172
aF5.392902929976172
aF5.392902929976172
aF5.392902929976172
aF5.392902929976172
aF5.392902929976172
aF5.350246285287379
aF5.347341192252845
aF5.314557922766653
aF5.2805748983148995
aF5.248158877792845
aF5.238325719106054
aF5.216292864930778
aF5.194584076667559
aF5.145199200224935
aF5.1423187501643
aF5.141895979991098
aF5.098578249516501
aF5.088883745259544
aF5.069713605223332
aF5.069713605223332
aF5.047681484845248
aF5.0282346405041585
aF5.0005579769586515
aF4.9627471917809185
aF4.93524681140609
aF4.914517570475299
aF4.878958311509684
aF4.862479402597364
aF4.833413159142782
aF4.833413159142782
aF4.833413159142782
aF4.793458321878812
aF4.778247115412197
aF4.776718281874697
aF4.75967976987465
aF4.75967976987465
aF4.725314322135231
aF4.706276926732599
aF4.687648856487182
aF4.6783867079648935
aF4.652769559393984
aF4.643926146091417
aF4.60860458334094
aF4.567753017951608
aF4.5410251377559225
aF4.532637466426333
aF4.532637466426333
aF4.508168795543128
aF4.481407287429834
aF4.465473790919708
aF4.427576486800299
aF4.418526109853966
aF4.394881668328346
aF4.388845877170566
aF4.380913118007369
aF4.36544362137576
aF4.342470148767984
aF2.264799718883843
aF4.322320005583252
aF4.306297802142672
aF4.283781108281969
aF4.283781108281969
aF4.268384384123737
aF4.267981809362672
aF4.254308151389149
aF4.207432287954158
aF4.181149742675924
aF4.170117464587047
aF4.167027254915479
aF4.152026757905224
aF4.144975390155813
aF4.119586563316378
aF4.112536939045213
aF4.077794724151816
aF4.071073409552192
aF4.205949542994687
aF4.205949542994687
aF4.019355180613343
aF4.019355180613343
aF4.008526099499359
aF3.996507804637454
aF3.9824474671196373
aF3.94915493339985
aF4.6617844758681874
aF3.945627219566517
aF3.9241590957120014
aF3.89167895630207
aF3.881624389495149
aF3.879367724077692
aF3.8596680242648023
aF3.8539094614442004
aF3.8420379213620195
aF3.8305377369755464
aF2.030532460169997
aF3.806341515464608
aF3.7890766482925238
aF3.770555101825366
aF3.752072598876826
aF3.7402826121098807
aF3.7208767043000557
aF3.7090156663073524
aF3.7081471831283994
aF3.693413380386693
aF3.6918737243296595
aF3.6595884338455327
aF3.6550763920049723
aF3.63580950078923
aF3.6152400504767837
aF3.608743348478905
aF3.5941371128284345
aF3.5846981479741395
aF3.574129807356933
aF3.5666914388346784
aF3.5474823537933533
aF3.5474823537933533
aF3.5444405559933845
aF3.533913050670229
aF3.5245286561013014
aF3.523013666828367
aF3.514022045262775
aF3.505125873364909
aF3.4961395499297194
aF3.487531823511014
aF3.477533032586997
aF3.477533032586997
aF3.477533032586997
aF3.463771576639559
aF3.4552207751905852
aF3.4552207751905852
aF3.4552207751905852
aF3.4552207751905852
aF3.4537170782490567
aF3.4537170782490567
aF3.4537170782490567
aF3.444491199269546
aF3.444491199269546
aF3.426273709978158
aF3.419244803690049
aF3.410449172203798
aF3.4078350268568154
aF3.4078350268568154
aF3.3916485747817315
aF3.383155878930954
aF3.383155878930954
aF3.358164181862423
aF3.350079835098356
aF3.350079835098356
aF3.350079835098356
aF3.3417076784120825
aF3.3417076784120825
aF3.3417076784120825
aF3.3417076784120825
aF3.3417076784120825
aF3.3325204147839926
aF3.3325204147839926
aF3.3325204147839926
aF3.323803685855799
aF3.3172213526275183
aF3.3172213526275183
aF3.3077004065391895
aF3.3011313290556763
aF3.2945676703539486
aF3.2855323124014273
aF3.2855323124014273
aF3.2855323124014273
aF3.276770219520614
aF3.276770219520614
aF3.268028941567635
aF3.268028941567635
aF3.253594329776224
aF3.2513902574763454
aF3.2426785551270094
aF3.2426785551270094
aF3.236175501076972
aF3.222171399621748
aF3.2138403665084483
aF3.207374646222572
aF3.1990717249547855
aF3.1990717249547855
aF3.1843237920577803
aF3.1725164316282695
aF3.164705716870519
aF3.164705716870519
aF3.1567221305138697
aF3.155629902519464
aF3.133856179758737
aF3.1290881530435115
aF3.1108253086043685
aF3.0839742296473673
aF3.0839742296473673
aF3.054901621573546
aF3.045147904156435
aF3.0449697691688273
aF3.0329817749900405
aF3.0187383554517635
aF3.01821748115339
aF3.0123906139884453
aF3.002428571142467
aF2.9924695668858248
aF2.9843832822054956
aF2.959557851239551
aF2.9518617973190224
aF2.933718711115016
aF2.926090297763511
aF2.906311487887879
aF2.872578002238518
aF2.872578002238518
aF2.8611717944401986
aF2.826699238443385
aF2.809390000477848
aF2.797786396333994
aF2.7795973313227926
aF2.7565789842968926
aF2.7503228233302033
aF2.741336459123297
aF2.741336459123297
aF2.738575444922192
aF2.713421753266833
aF2.7048553525868337
aF2.687113891655739
aF2.6721495467115495
aF2.6660444149158775
aF2.652235838537359
aF2.6442403880540613
aF2.635535725918372
aF2.629820107074168
aF2.629820107074168
aF2.597923357775645
aF2.5807879578583512
aF2.5807879578583512
aF2.566045153088942
aF2.5539855449567073
aF2.543260492587488
aF2.542575638425869
aF2.53449112708603
aF2.5241814716098934
aF2.497008309335425
aF2.491613363693068
aF2.486200649653657
aF2.4814980764994368
aF2.4760994039074777
aF2.4663398522714903
aF2.44826739052393
aF2.4382995562698437
aF2.4377363707575928
aF2.419868816976764
aF2.409805383165685
aF2.395856647510116
aF2.386466878178051
aF2.371468518349987
aF2.3539550140887013
aF2.3462576202843075
aF2.337451012392018
aF2.33160758558054
aF2.3275488218811238
aF2.322572669693732
aF2.309884422445446
aF2.29302196228388
aF2.2630754615785413
aF2.2735945797503256
aF2.2652097608518242
aF1.808107027542045
aF2.248336925722001
aF2.2417233701494763
aF2.2354386361585066
aF2.220020961641474
aF2.2165213832608353
aF2.2109357692085383
aF2.208514431785084
aF2.201913238702532
aF2.201913238702532
aF2.1851357046193254
aF2.179159286131288
aF2.177897119574103
aF2.1657841457775078
aF2.162456829957743
aF2.155390237767137
aF2.1475687398344445
aF2.1475687398344445
aF2.1425577986332534
aF2.1322034830145724
aF2.122446489008265
aF2.1221760001344934
aF2.112534917917985
aF2.1094000875721033
aF2.1055736914937886
aF2.0955763698752845
aF2.0880906866431324
aF2.0860063971828877
aF2.0827770630347686
aF2.072035645626796
aF2.0690666764344976
aF2.0649898886200093
aF2.0493888411831134
aF2.0493888411831134
aF2.043479745430087
aF2.03735965951199
aF2.03735965951199
aF2.0273634118790427
aF2.0222741290728203
aF2.0222741290728203
aF2.010045840865597
aF1.999897318966266
aF1.9962914822707758
aF1.9950738986911132
aF1.9925470201876412
aF1.9899690918449446
aF1.985085523173842
aF1.985085523173842
aF1.9770364385616095
aF1.972455828233484
aF1.9685371190946366
aF1.9685371190946366
aF1.9673941754013782
aF1.962616980504222
aF1.9590904125263546
aF1.9544183997173834
aF1.9544183997173834
aF1.9499537731141252
aF1.9462668421113076
aF1.9418999953912917
aF1.9383017896106576
aF1.9383017896106576
aF1.9379528646127246
aF1.9340492398995723
aF1.9337046917372689
aF1.9306761632858904
aF1.9263180447316266
aF1.9263180447316266
aF1.9263180447316266
aF1.925174144074882
aF1.925174144074882
aF1.925174144074882
aF1.9195241219052648
aF1.9105239702009356
aF1.9038196888681613
aF1.9038196888681613
aF1.9038196888681613
aF1.9009253578688512
aF1.9009253578688512
aF1.8975257815372473
aF1.8975257815372473
aF1.8948961009329028
aF1.8903162498344879
aF1.8903162498344879
aF1.8840193253553534
aF1.8806358102982186
aF1.8782248233593724
aF1.8769602468769762
aF1.8760981680858762
aF1.872867165256883
aF1.8691018694884696
aF1.8691018694884696
aF1.8637968267345757
aF1.857549432448706
aF1.8540744327640586
aF1.8515347916246558
aF1.8505211348004929
aF1.8472805637252185
aF1.8471336296658392
aF1.8449726488511244
aF1.842997439594409
aF1.841624905815108
aF1.8381022569815715
aF1.836906227038809
aF1.836906227038809
aF1.8349548850440203
aF1.8339410990066607
aF1.8328832115105957
aF1.8291623325155455
aF1.8255088236456942
aF1.8240852692486165
aF1.8224847784152753
aF1.8196699562749146
aF1.8187219806901136
aF1.817959785213017
aF1.8157881324131104
aF1.8149605736552408
aF1.8136614928482135
aF1.8129622818922673
aF1.8128507473259963
aF1.811136148204721
aF1.8104960706385156
aF1.8093936995581477
aF1.8087131670109344
aF1.8062977330479275
aF1.805473102201963
aF1.8044481432236608
aF1.80406388284129
aF1.8032195491971634
aF1.802095700905144
aF1.8014306511579397
aF1.8006188203063207
aF1.800031013879862
aF1.799758445539758
aF1.7991519864289292
aF1.7988147610994563
aF1.7986181387333648
aF1.7984475231409298
aF1.7981087513342895
aF1.7977554702070837
aF1.7974889775695155
aF13.902408921285325
aF13.902408921285325
aF1.7973725623533892
aF1.797321000744402
aF14.33013074788579
aF1.7973623318805094
aF1.7975354393505771
aF5.768895796983363
aF1.7980715577409745
aF1.7981718237401902
aF9.37632273343958
aF1.798830520252318
aF1.7994518769608923
aF1.7997090603075436
aF1.7997090603075436
aF10.516094139972385
aF1.8007385648617444
aF1.8017777593536832
aF8.177700444469115
aF1.8025222742070093
aF1.8042359798588343
aF1.8045943105104318
aF1.8045943105104318
aF5.248221598533199
aF1.8071436096235458
aF1.8075457507100186
aF1.8090995887515402
aF1.8100631451243232
aF1.8118621287716605
aF1.8131977451024168
aF1.8137826868262628
aF1.8149166924420141
aF1.8181815063697102
aF1.8194518076099753
aF7.749789457946669
aF7.61949266320961
aF1.82605500657283
aF9.559805542840056
aF1.8288457126573772
aF1.8311229841766605
aF1.8321241069481466
aF1.8321241069481466
aF1.8351540155539607
aF1.8354105530331184
aF1.8365970032545411
aF1.8365970032545411
aF1.8365970032545411
aF1.8387134952944146
aF1.8387134952944146
aF1.840479348935724
aF1.8418704952004035
aF1.8436620222111946
aF1.8449690256116094
aF1.8479494175054239
aF1.8498924024082288
aF1.8512385749002818
aF1.8546715905256062
aF1.8546715905256062
aF1.8584959342914922
aF1.8584959342914922
aF1.8636215770427222
aF1.8636215770427222
aF1.8639762352782658
aF1.8658830976454723
aF1.867767595567524
aF1.867767595567524
aF1.867767595567524
aF1.8709844261109418
aF1.8732388902913821
aF1.8742076631367084
aF1.8742076631367084
aF1.8742076631367084
aF1.8775831126482987
aF1.8798308016687657
aF1.8821082231687691
aF3.0485664272959325
aF1.8687107915035208
aF1.863268873278828
aF1.8580844835334493
aF1.8432734530628214
aF1.8432734530628214
aF1.8432734530628214
aF1.8432734530628214
aF1.8373113059291124
aF1.8373113059291124
aF1.8277879438370244
aF1.8277879438370244
aF1.8290066199359272
aF1.8377178726622292
aF9.532829274508842
aF1.8529888896764024
aF1.8491961938501849
aF1.8540291383026566
aF1.9602622937754148
aF58.9753547140402
aF70.64866958498186
aF45.093190352984884
aF28.972444881083618
aF21.890731432020107
aF17.442434847861367
aF17.43081837559967
aF16.965679832648156
aF15.608188932029961
aF15.608188932029961
aF15.573483052337403
aF15.097279227874983
aF14.837555452601888
aF14.937210058829438
aF16.52933076220958
aF29.645990198025896
aF56.94330537877663
aF70.62128800153121
aF76.54069705664692
aF85.42599258486733
aF90.91264262502526
aF97.68781849450075
aF119.85988149437965
aF122.17538086709054
aF136.635532164827
aF158.90522484839863
aF166.68263058363965
aF166.52415476378474
aF166.96247553726562
aF169.14657718921558
aF206.38674266166686
aF211.71381688093388
aF236.67914816159544
aF183.65413841083517
aF140.39235221943318
aF132.69193051373014
aF151.04509098998267
aF129.59371011503785
aF78.23915548432042
aF15.845522067031695
aF58.14461013932341
aF58.14461013932341
aF97.12648624546138
aF138.1532228090452
aF111.04588481958824
aF159.1172779772607
aF200.11164588461935
aF236.98794691494547
aF288.0340550728928
aF323.9238097492318
aF324.90614840402503
aF306.11671010595654
aF306.11671010595654
aF295.7223403393173
aF286.3901420555149
aF264.09506759155823
aF250.8874016532053
aF233.2957038773597
aF204.287812526127
aF197.2460841351437
aF176.19541095692054
aF171.8589361768824
aF157.4730481260909
aF128.0841597593556
aF123.4861521345942
aF103.78226480715662
aF91.75594941318143
aF75.11894269223718
aF55.63151018907624
aF48.925023347848786
aF22.609264203276666
aF17.99924480148225
aF23.42099200971289
aF28.952101469890653
aF29.305942358407822
aF40.59777690661156
aF45.50452610434608
aF47.867535234628036
aF50.15594287903642
aF48.56228353706066
aF52.118572763448505
aF182.26706705560568
aF180.82290340196204
aF179.39773142953942
aF145.05821266286426
aF130.9366361316912
aF118.02848682079717
aF102.07022003985584
aF102.07022003985584
aF143.9974170374963
aF102.07022003985584
aF102.07022003985584
aF7.484602351688992
aF2.920191117815033
aF19.42872014780722
aF40.450705873226525
aF65.27547722432395
aF58.43727143971114
aF99.34383109819854
aF103.2982452764079
aF139.47775500829889
aF47.710339677652776
aF36.78498249332247
aF62.04668571094032
aF0.9351020065496329
aF56.74206119763011
aF29.79626807782446
aF18.35647859974245
aF35.57842514075361
aF12.875246072619243
aF6.201049256458869
aF13.513102257710417
aF5.3232395262634995
aF2.0493435843401455
aF16.67428533961011
aF26.972491881457287
aF15.06262710059035
aF58.14461013932341
aF97.12648624546138
aF138.1532228090452
aF138.1532228090452
aF72.3662690607378
aF72.3662690607378
aF38.14472161242484
aF36.50482262933206
aF32.397744511534256
aF39.39008432838219
aF39.39008432838219
aF60.456567270068426
aF86.45298924135962
aF95.60681959958329
aF68.88486963840606
aF143.43559375716055
aF123.39016291705668
aF137.05355504468716
aF71.98262305389463
aF45.83485110445691
aF33.77088006610592
aF11.813969432696526
aF11.700598309851179
aF24.066014474943763
aF37.8645783510591
aF15.610952534223786
aF17.791926441308505
aF25.726831336652538
aF12.713255243553101
aF13.27009743318146
aF36.8272942550668
aF57.23902307106465
aF83.64425815386534
aF74.09721872572739
aF50.200158651744424
aF32.47996162557183
aF25.10713440700638
aF10.408234168141174
aF1.5396281069190225
aF10.927432398655636
aF45.63779631648376
aF24.246705420663336
aF51.487716888063204
aF51.487716888063204
aF51.487716888063204
aF5.173599486741549
aF18.930284865801895
aF33.92354796925935
aF39.0097362493392
aF72.13162517986842
aF65.32612658998394
aF75.97732039235872
aF84.92506757959893
aF121.38310135424622
aF120.54653279032485
aF137.69943674995488
aF153.26105393391967
aF163.4668492995167
aF186.61546093665837
aF214.51149952179722
aF211.28876896095304
aF20.34086561609418
aF8.262205742493864
aF11.041720074451485
aF7.123446615314546
aF5.7309259559424195
aF4.980655722648708
aF6.087265310179636
aF7.044388550043448
aF6.493814279860252
aF6.591905058029544
aF6.519459101707253
aF35.24282610723629
aF23.643952294083995
aF58.99933925371956
aF86.35487726115473
aF125.56713942056349
aF168.86414705846926
aF197.23942890982786
aF197.23942890982786
aF183.2599752145056
aF146.65474668366045
aF105.46901847384494
aF95.83562648284166
aF87.8562261573936
aF37.7368017437322
aF35.77500447600811
aF34.150080681109316
aF7.195232131281276
aF67.50102908865671
aF144.33131130162462
aF248.84895806571228
aF298.31260748460073
aF373.9656570765628
aF392.7708644041645
aF411.0458585742187
aF374.4164262382592
aF318.6985684679978
aF266.6662214997953
aF241.58346495576808
aF166.3831281598784
aF109.6246836192223
aF50.05749039546203
aF9.212117528599265
aF28.79474835139726
aF58.61840332901397
aF39.30487594405089
aF41.92502426522548
aF41.92502426522548
aF61.16752761466905
aF76.38267137464292
aF48.26779699149679
aF51.869356370907035
aF15.087032672280769
aF9.9191657742667
aF21.799857148340134
aF43.44032199663749
aF43.44032199663749
aF111.21144609671263
aF99.77102327188385
aF62.49783374682133
aF57.17189659004935
aF52.1183798092984
aF18.397904731110557
aF15.377434993095937
aF12.991365321008706
aF24.758863738047904
aF55.55085964783673
aF115.51157539774331
aF128.82222686144885
aF128.82222686144885
aF128.81434269745534
aF128.81434269745534
aF81.45417140516797
aF81.45417140516797
aF91.34270655810356
aF91.34270655810356
aF14.644129948594752
aF13.56115138820353
aF17.419205864701045
aF67.15598538660636
aF67.15598538660636
aF91.60060164287054
aF111.10901176770233
aF133.76746724625704
aF150.25680273922143
aF155.71925294691926
aF172.8489074585709
aF176.91869663261855
aF173.23566392155354
aF110.76311508328298
aF104.33238781324711
aF130.54923286246967
aF133.68171252168108
aF161.35078846023578
aF147.72969559326958
aF130.64800403893835
aF89.81898300650091
aF30.720615266946496
aF53.10426250723561
aF9.661176738217655
aF39.50515535885101
aF74.43740782161163
aF113.89692308177686
aF145.33744782959275
aF128.41285912018998
aF169.67451979487905
aF201.98804916677366
aF261.6622051924607
aF285.3772403541348
aF279.23326342497836
aF279.23326342497836
aF253.2963808933708
aF224.95705738653132
aF215.97060639540967
aF192.109353217641
aF166.43936705762297
aF155.63517225100472
aF142.60316983640504
aF124.48501903035152
aF97.3170000320315
aF88.67682341045007
aF61.40780988132186
aF42.18805352832944
aF31.77003905821066
aF14.608308996373061
aF18.363732834592465
aF24.388855434489898
aF33.6419018839924
aF33.6419018839924
aF46.83334206106207
aF53.41548709479272
aF55.87395403807937
aF57.50341623664918
aF58.97923651009263
aF58.36245589095912
aF57.88217045093361
aF59.75772545474407
aF65.94204531366123
aF76.1064655760801
aF80.77136124121408
aF49.623251889007385
aF18.140987893181325
aF18.140987893181325
aF18.140987893181325
aF18.140987893181325
aF18.140987893181325
aF18.140987893181325
aF48.01971943476159
aF48.01971943476159
aF48.01971943476159
aF18.140987893181325
aF18.140987893181325
aF21.735877390916304
aF21.526172018482658
aF21.526172018482658
aF21.50265575198641
aF49.85176469963118
aF59.795512659768754
aF72.97602075081562
aF108.05576138514559
aF120.80803845124304
aF70.194510596699
aF21.392595716997764
aF7.1470402122414125
aF12.420913051705154
aF38.23610630213603
aF61.42259076072294
aF25.972415405205684
aF4.810139258044372
aF13.990847503338617
aF32.48910777615615
aF22.83272993550307
aF11.706586893114904
aF15.845522067031695
aF15.845522067031695
aF48.68551938886547
aF13.853519607015086
aF30.917882259069625
aF71.0101682734119
aF15.380498755506812
aF49.35615498161008
aF9.17613237821396
aF13.03963078279213
aF13.03963078279213
aF13.03963078279213
aF13.03963078279213
aF13.03963078279213
aF13.03963078279213
aF13.03963078279213
aF13.03963078279213
aF13.03963078279213
aF13.03963078279213
aF73.8469096063506
aF87.20037736893013
aF130.5056119315304
aF126.7302865525933
aF105.92979062383608
aF90.28045758514259
aF88.54846499670941
aF126.42377275814836
aF139.13997260993074
aF110.10974328862109
aF15.111470389584857
aF8.430302939567525
aF5.81572764273592
aF66.63994763099386
aF49.14190857479103
aF114.88401720000451
aF162.90126130005982
aF186.1661328041212
aF223.86486507387386
aF270.90668546651347
aF322.69835051762414
aF355.55124280914146
aF361.42593523313445
aF354.94467038234467
aF354.2149769529033
aF293.39085750352024
aF281.47298656722563
aF266.7132172923562
aF262.71255016615095
aF234.48571210083426
aF220.46104971889892
aF197.34198722642967
aF188.41487138679244
aF151.09547671321394
aF143.08453113471344
aF125.44589076401041
aF113.29026623467028
aF19.199450222867455
aF17.592213861551805
aF14.575162688454231
aF14.575162688454231
aF14.575162688454231
aF14.575162688454231
aF14.575162688454231
aF14.575162688454231
aF14.575162688454231
aF14.575162688454231
aF13.160052418088052
aF13.194276985883539
aF79.82164822963838
aF27.70941557935042
aF30.908394772176212
aF8.917892201607728
aF8.443444443339727
aF7.337200311717619
aF6.9887221418765035
aF6.221237771405577
aF5.7757662433357275
aF5.796160524555212
aF12.21395844789188
aF23.081757141050232
aF34.10065830815911
aF32.42313857138699
aF59.41471708382289
aF66.70035343013505
aF83.28489646317117
aF108.28559998269432
aF114.68043792065345
aF113.38986187440743
aF112.92395141972814
aF116.23721284946552
aF120.76449755643074
aF124.9597458179865
aF133.22023562286168
aF109.0584427629001
aF42.57244113992718
aF21.49454556698847
aF48.54264682492399
aF92.01001638345573
aF119.51139640738594
aF188.58785055145663
aF249.1690384063503
aF201.82799555897924
aF165.25370589269008
aF116.33940437052823
aF56.941229136119
aF12.237244043277553
aF18.403154502701486
aF17.587697533703377
aF15.237422215587038
aF18.403154502701486
aF18.403154502701486
aF11.882333022768607
aF13.4918707712635
aF13.524583796303641
aF5.373263846003908
aF6.139884478521593
aF5.373263846003908
aF6.703397864924727
aF8.467147426945177
aF12.817868494845781
aF17.377181938336285
aF53.41521765011682
aF55.41874450227592
aF77.60429593890939
aF37.71575305926678
aF16.059819718102233
aF24.015315825853335
aF19.384063223917575
aF5.916125874036848
aF39.07699475876301
aF16.958118765690884
aF16.016121834812857
aF29.510435348666107
aF20.050490545959796
aF19.597717927472452
aF61.199988160300265
aF57.44163770581176
aF37.77011752517623
aF19.513195334111025
aF12.113416548569578
aF53.775579201739646
aF50.56882168467455
aF70.16391911614151
aF94.04009974142888
aF114.18682910232721
aF135.57008100505215
aF155.60030418829393
aF175.58310151579312
aF146.13570198030877
aF92.65486477194202
aF33.96382451842779
aF20.47268578589287
aF69.93143473581485
aF93.3203951989826
aF59.74016142365427
aF18.239016120120503
aF23.734715355855872
aF51.15890079003298
aF97.93957598517638
aF116.03233294857874
aF121.98766501878626
aF133.4765355324951
aa(dp2
I0
F237.47734591217917
sI1
F128.20687639821801
sI2
F61.594511676414065
sI3
F376.81890178309317
sI4
F27.15160843914635
sI5
F110.7626735844908
sI6
F64.93710859110237
sI7
F111.40475556087955
sI8
F124.79474669411607
sI9
F115.7365471052391
sI10
F135.5139468985426
sI11
F48.96300699965204
sI12
F88.41393012829813
sI13
F133.31280669156465
sI14
F119.54850250025927
sI15
F91.67854621389131
sI16
F102.72588570894695
sI17
F355.4620778813393
sI18
F399.38155615986636
sI19
F68.78167813131756
sI20
F243.75827932213468
sI21
F114.39278668900947
sI22
F78.7911626923477
sI23
F183.3743121047535
sI24
F145.59149602000144
sI25
F183.3781102642154
sI26
F56.82794985249046
sI27
F62.2681961067376
sI28
F66.24750432259934
sI29
F63.06582267930712
sI30
F68.26566064752451
sI31
F192.49194511182395
sI32
F59.362468411131914
sI33
F96.4100803159936
sI34
F68.79934363277751
sI35
F120.26375263976992
sI36
F80.88708341544395
sI37
F11.792549406768583
sI38
F105.44614018132401
sI39
F101.2453067118429
sI40
F47.1019519744287
sI41
F66.02204124622294
sI42
F96.0179547319827
sI43
F92.73969440616936
sI44
F89.34180615442429
sI45
F66.41025055861388
sI46
F23.45208957920402
sI47
F68.40984182354103
sa.