(lp0
F3.8394539029104635
aF6.717935749446042
aF4.2929356766399
aF7.485864744056016
aF7.931918520072941
aF8.644870334886946
aF8.610424163402058
aF8.081060559838079
aF8.64806022157427
aF4.8430317360721125
aF5.154504115543975
aF8.626332671032287
aF5.176377157731497
aF0.5608473118627444
aF2.601604912080802
aF0.6317559722810984
aF4.084215172100812
aF5.033141810529755
aF4.7850260542222545
aF4.352454126870725
aF4.850217963911393
aF6.261748797457271
aF5.0147621291689575
aF6.074850586092082
aF2.9941332107409835
aF0.0990755558013916
aF1.6615577605552971
aF2.1467469027265906
aF7.400580824527424
aF6.457343575719278
aF2.5354514764621854
aF4.0346262929961085
aF0.3337368342326954
aF2.063624272006564
aF0.9545204647583887
aF8.48706550267525
aF62.092909448823846
aF62.092909448823846
aF62.8508563608104
aF63.65694577786158
aF67.13359927148538
aF71.39780338519579
aF72.81221975831745
aF75.44009887830583
aF75.79307164779566
aF82.09898416373221
aF79.26780459515489
aF80.79049607202019
aF80.79049607202019
aF31.497581049334258
aF22.735456842929125
aF26.688613281119615
aF27.60532270791009
aF0.623457248788327
aF3.438046297058463
aF6.4775124955922365
aF6.4775124955922365
aF6.4775124955922365
aF6.4775124955922365
aF104.02386638421997
aF2.2863123016431928
aF2.2863123016431928
aF1.8585119610652328
aF5.978972973302007
aF6.265522698056884
aF6.265522698056884
aF3.15033968584612
aF3.15033968584612
aF1.958709932398051
aF61.810288982190436
aF62.699336146785605
aF64.02010777510144
aF65.62407034136595
aF75.51691722278566
aF88.27595442431081
aF112.05612125441155
aF112.05612125441155
aF117.16876911988894
aF117.16876911988894
aF117.16876911988894
aF117.16876911988894
aF117.16876911988894
aF2.726900093257427
aF3.3540107803419232
aF3.5680651608854532
aF5.068489032913931
aF5.068489032913931
aF1.0367985591292381
aF1.9436891544610262
aF1.9436891544610262
aF70.52368933829958
aF75.08676482760893
aF77.81485490104406
aF75.17588968034505
aF65.02596427425958
aF29.22765358389433
aF17.874979769519996
aF1.5933446091949008
aF1.304999514715746
aF6.850367566337809
aF5.268914276268333
aF7.424762070761062
aF7.424762070761062
aF5.012032214552164
aF4.001937399967574
aF4.275944651744794
aF4.245566824800335
aF3.1853024187730625
aF3.190888623939827
aF5.64185301726684
aF5.64185301726684
aF1.6737760035321116
aF0.14327278267592192
aF0.14327278267592192
aF0.14327278267592192
aF0.14327278267592192
aF0.14327278267592192
aF0.14327278267592192
aF0.14327278267592192
aF0.14327278267592192
aF0.14327278267592192
aF0.14327278267592192
aF0.14327278267592192
aF0.14327278267592192
aF0.14327278267592192
aF0.14327278267592192
aF0.14327278267592192
aF0.14327278267592192
aF0.14327278267592192
aF0.14327278267592192
aF25.971586971601106
aF7.76007723947987
aF2.460192682687193
aF1.3886605575098656
aF0.033313172636553645
aF0.5666328520746902
aF0.5553725620848127
aF0.5553725620848127
aF8.945870822572282
aF67.08239167000043
aF300.5872357455789
aF301.1264183203023
aF302.6649399247267
aF302.4661179696938
aF280.80306019677624
aF274.30596735707513
aF80.4066862333566
aF122.68060847511515
aF134.90152722550556
aF183.74313128784908
aF195.91962369451753
aF1.4474494301248342
aF1.9187005059793591
aF3.5012684226967394
aF1.2535284557379782
aF7.759045665618032
aF8.361990350414999
aF8.28172424947843
aF8.319018797250465
aF8.318040519719943
aF8.389205036975909
aF8.413186752644833
aF8.413186752644833
aF8.413186752644833
aF8.413186752644833
aF8.413186752644833
aF8.413186752644833
aF8.413186752644833
aF8.819423263310455
aF7.593549343757331
aF4.912955301813781
aF1.6259715538471937
aF3.7219042365904897
aF4.204591111512855
aF3.7983565886388533
aF1.9005081101786345
aF60.21265022152605
aF65.90065561605324
aF9.274519401497157
aF9.274519401497157
aF15.384207340888679
aF8.57877102587372
aF6.093693335074931
aF6.093693335074931
aF5.0449441347736865
aF5.894685253035277
aF7.278226736467332
aF24.94601493032042
aF13.293278838507831
aF12.75765465814838
aF26.32628279213676
aF70.49645667521186
aF82.77806860405944
aF111.50634339275665
aF119.62065590574018
aF121.16310488174929
aF125.10572070167734
aF194.43681689528262
aF217.3631795858836
aF248.95549823346437
aF292.618137222765
aF302.2716448564062
aF353.0879450751725
aF367.7584998901701
aF367.7584998901701
aF420.84903802808384
aF420.84903802808384
aF449.252080130433
aF473.5211963293915
aF518.46748324119
aF573.161456199532
aF580.8840213092052
aF603.7178682427289
aF638.051906699425
aF695.2228622783705
aF725.0157483296523
aF733.2133207642934
aF739.000299404222
aF740.9299744276377
aF768.137039001617
aF816.3842038037786
aF825.9148982573892
aF834.3091899228368
aF839.6791875432908
aF890.2767927783165
aF909.9199932502099
aF916.3532039095452
aF916.3532039095452
aF916.3532039095452
aF916.3532039095452
aF916.3532039095452
aF916.3532039095452
aF916.3532039095452
aF916.3532039095452
aF916.3532039095452
aF916.3532039095452
aF916.3532039095452
aF5.705276919063181
aF78.31937131151699
aF78.31937131151699
aF76.74990392454627
aF73.89704335599907
aF3.4905688024591655
aF7.817395192221738
aF8.458262848318554
aF6.783701632928569
aF6.783701632928569
aF6.783701632928569
aF6.783701632928569
aF6.783701632928569
aF6.783701632928569
aF6.783701632928569
aF6.783701632928569
aF6.783701632928569
aF6.783701632928569
aF6.783701632928569
aF6.783701632928569
aF6.783701632928569
aF6.783701632928569
aF6.783701632928569
aF6.783701632928569
aF6.783701632928569
aF6.783701632928569
aF6.783701632928569
aF145.29085244480822
aF150.35738263057408
aF144.00849444803282
aF139.5358597770747
aF126.77070181891837
aF123.86010633437621
aF116.8425322023686
aF110.22081152861938
aF108.63907911523711
aF99.30804389109835
aF90.8569117226577
aF113.4572371402019
aF101.44677682240608
aF113.60682857259714
a.