(lp0
(lp1
F35.41401384377845
aF18.4754333392491
aF15.135832215879374
aF13.642040695850191
aF13.642040695850191
aF13.236288067200631
aF13.056889877829406
aF13.082312046001764
aF25.226871255428154
aF35.90848912907806
aF9.783898974985927
aF108.86616084898937
aF10.380650076007113
aF9.475797784307316
aF15.58153665695245
aF34.407995786334546
aF12.589543767373604
aF7.457778164605699
aF10.67322063738524
aF79.15513147589846
aF79.15513147589846
aF50.42578096003488
aF54.49738489792571
aF63.25461438691872
aF61.048861431768415
aF57.296291798244646
aF63.48792058627481
aF69.02281242767448
aF76.3099975810566
aF12.68857002501531
aF25.397991972997048
aF61.35198109337382
aF50.85957627954867
aF47.366114361909496
aF63.6763299174708
aF58.988761761085705
aF87.78029754476105
aF88.94885125887939
aF157.77590141406125
aF160.0617125265461
aF154.83690842024683
aF176.09858016396274
aF178.3078504216739
aF182.2220624133593
aF187.72443258190205
aF191.85102450796126
aF182.67582209051662
aF166.58679162243143
aF168.55887816668738
aF169.92510176237752
aF170.52734433449615
aF170.52734433449615
aF20.781960661216626
aF19.25058876789421
aF19.617252426995954
aF14.381827504717874
aF56.685671480188596
aF108.64356229524024
aF138.35526754196692
aF82.44196897627648
aF48.65092411900553
aF32.34069044551453
aF26.58229977501531
aF24.35702705824683
aF7.44338119000442
aF7.44338119000442
aF7.44338119000442
aF31.302244380038758
aF28.441389854578134
aF60.70931571614068
aF60.683441853436165
aF58.98626244653164
aF56.62902428951462
aF56.47765640518261
aF37.745996940747766
aF24.146753383032067
aF6.514900202010273
aF6.514900202010273
aF6.514900202010273
aF6.514900202010273
aF6.514900202010273
aF6.514900202010273
aF17.398336371961676
aF15.969262123456526
aF18.429488988289165
aF36.068985547165035
aF55.94420511773289
aF36.09548334640798
aF10.308796568655485
aF105.77684975431595
aF105.77684975431595
aF17.061330253678886
aF14.322770273726277
aF17.70089807386433
aF23.535669684080574
aF33.05901345335867
aF23.533525291919098
aF15.26794789767768
aF15.276374802082973
aF30.609674432876776
aF3.5882409134665467
aF193.51538322661304
aF179.72885370670735
aF163.15925426657284
aF140.22136702575528
aF272.65720233145237
aF272.65720233145237
aF273.4753902567139
aF286.3073371276683
aF288.05035251710115
aF204.4655288282819
aF312.0246086405648
aF58.387234638615745
aF33.05774554095507
aF20.19859379373176
aF20.19859379373176
aF16.025562009424878
aF15.424971731120731
aF15.453092016568949
aF15.453092016568949
aF72.95845094069152
aF72.95845094069152
aF116.68279691380013
aF108.75163761729983
aF104.32724975582701
aF101.12502444518417
aF100.65803161272981
aF100.98521237264595
aF198.86623944356896
aF199.62999068880487
aF211.54110229841166
aF213.88907668408015
aF216.32800604351678
aF10.346305466913307
aF16.127303683871393
aF14.582908566604885
aF17.430696604262646
aF30.140213894698682
aF30.22969337501438
aF30.71109214077511
aF30.628200354424767
aF30.584506267372632
aF30.519828099959355
aF30.418813281384253
aF30.418813281384253
aF30.418813281384253
aF30.418813281384253
aF30.418813281384253
aF30.418813281384253
aF30.418813281384253
aF29.515587887368405
aF28.191594463473912
aF21.69904382887428
aF20.595677509144476
aF12.221235453457185
aF13.770021271983845
aF12.626075451891378
aF9.249020333764584
aF21.845525763300987
aF21.151514726778725
aF48.18714621939692
aF57.42343567270103
aF24.811206538432373
aF11.733434234618954
aF49.07643365407886
aF16.329785930727944
aF34.413324186561105
aF12.606455312675578
aF61.06479595406321
aF41.34581353632161
aF37.871319675630666
aF32.60951737870974
aF20.16834734542225
aF17.746037882177976
aF24.08597995974026
aF24.08597995974026
aF16.172272463393224
aF26.023746440024798
aF15.567882173899473
aF3.1057423005044558
aF10.996121728760759
aF18.52885239083154
aF17.327230232571413
aF17.236367165196302
aF12.182874053651885
aF3.75709529269365
aF5.7224333566498755
aF6.994340365822758
aF12.093076573345957
aF3.5623517271768703
aF6.6386937358868625
aF17.81249608089795
aF8.108194387808087
aF8.188791132732238
aF10.988876318719388
aF18.323282477836784
aF12.50241645556988
aF21.87152355528296
aF80.32630829957488
aF98.1096721611585
aF84.45822661054396
aF84.45822661054396
aF146.5258167256474
aF6.735984624583421
aF21.41982844851278
aF17.688181151129683
aF13.155078985745007
aF41.50817078524442
aF79.72106903186169
aF101.05882119128628
aF11.99689082933418
aF5.586344199483179
aF50.75568355089076
aF14.780204029236039
aF11.982326122028946
aF11.182421363183924
aF91.1248283379038
aF164.34335743989783
aF78.99732022259315
aF79.98593102081067
aF79.2945733548896
aF78.48477895205158
aF78.36980475617818
aF64.97057529546795
aF36.39891123277355
aF6.413222049827131
aF5.108726500634998
aF9.263436628470442
aF9.263436628470442
aF10.082544732973753
aF8.948950986308184
aF9.207084080589082
aF9.225681121454581
aF9.233311929394283
aF9.22930659121999
aF9.2315363653579
aF9.213890366142476
aF9.185655425828886
aF9.186458848884381
aF9.184762646532851
aF9.159353023138607
aF9.157200473637648
aF9.132197347960702
aF4.833054965412616
aF19.036721511860993
aF82.95793599530899
aF96.95789001624296
aF53.778930781114106
aF6.815712260718985
aF55.621575997154224
aF71.44736763727144
aF93.0396964849996
aF125.49425474641586
aF78.60632409151017
aF75.99079605440518
aF29.74735622752125
aF13.352735453044666
aF35.48908799048069
aF47.48146874130106
aF21.483569334891225
aF13.077711243088684
aF14.396497966313952
aF10.872494194917627
aF14.571583977071553
aF20.615373593734677
aF26.21456426537818
aF86.16596758345196
aF119.71646864198107
aF118.34496482228414
aF118.75608799510987
aF59.807034428066636
aF101.63043375670495
aF47.84272915184975
aF12.890827242142288
aF13.484305650609935
aF12.398617220901887
aF9.934533709384107
aF9.57908130118312
aF70.33091903701245
aF136.32944091417755
aF207.57732473270332
aF243.7022347618679
aF259.2223288097617
aF265.83189740216915
aF220.54649955059878
aF179.192076487663
aF182.59602885786293
aF206.27425271340408
aF346.0097476543913
aF346.0097476543913
aF434.33238349322477
aF407.2437541654683
aF359.0828974977094
aF300.64957953397044
aF291.8852315218133
aF234.52445150197343
aF190.95423329936327
aF147.65194622233912
aF104.68595585570476
aF59.79773911352482
aF9.811017244768642
aF10.597776453581796
aF64.27840914902512
aF84.9853078394563
aF134.95030138542927
aF94.84604393810478
aF87.95962046400278
aF62.978755806966106
aF35.42260491676748
aF10.550073567911404
aF8.83242759561534
aF12.806864585036124
aF16.968809015590054
aF15.699459541247702
aF81.76223090156292
aF91.30333337425994
aF110.13370452237143
aF73.93942833415107
aF33.55455829628087
aF12.623915205166584
aF59.80703151853081
aF45.8852325684275
aF47.04937591570463
aF46.66850861728934
aF46.73123822912358
aF46.58261828298941
aF46.606071336506425
aF46.77122869782516
aF18.3298420873744
aF11.99128691461529
aF12.650556173931614
aF12.722052347293557
aF18.8814675067843
aF19.861542039298758
aF41.969390950861346
aF46.122088441637
aF54.01624074360709
aF28.406996295070247
aF12.606455312675578
aF12.28886175314207
aF12.237958475748556
aF11.922034654780399
aF24.12194360510522
aF24.12194360510522
aF51.99615299930655
aF38.291206422651285
aF78.71362385091949
aF82.31584093767879
aF79.10761673224425
aF83.29460233868399
aF82.79339247887538
aF40.11371211351424
aF59.51125303154732
aF12.253855122868371
aF12.035734219231964
aF7.7946654932510215
aF26.244283535051192
aF12.795005512113471
aF9.783989535239606
aF8.013748490653596
aF12.30798019977733
aF22.148752832929283
aF4.58663244004604
aF4.58663244004604
aF10.869173118645252
aF29.271473603258553
aF38.459383467501326
aa(dp2
I0
F67.5158227350355
sI1
F30.343680942049783
sI2
F44.640917508033404
sI3
F19.395544507673183
sI4
F169.15621455641212
sI5
F272.8053745761764
sI6
F34.01157874221009
sI7
F105.42165878624782
sI8
F208.0508830316765
sI9
F24.0840279049418
sI10
F33.4612424013297
sI11
F28.68184915627623
sI12
F40.183876316909036
sI13
F45.21900698399483
sI14
F77.7264158899631
sI15
F23.999283680398346
sI16
F72.26429164049478
sI17
F15.082236429329507
sa.