(lp0
(lp1
F9.580728416586425
aF19.603668415960506
aF9.318421431782966
aF28.10618540132528
aF13.165635476979826
aF25.8933582237883
aF19.990202158288426
aF13.082312046001764
aF25.226871255428154
aF35.90848912907806
aF47.0479592442096
aF7.378810439148466
aF10.380650076007113
aF22.454488827677697
aF15.58153665695245
aF19.813141002062842
aF12.589543767373604
aF7.300499911511794
aF7.490931889183901
aF29.38920270076709
aF32.00817205218373
aF50.42578096003488
aF65.1759191966705
aF63.25461438691872
aF43.20231069042374
aF57.296291798244646
aF63.48792058627481
aF69.02281242767448
aF68.91547166658592
aF88.38706431931364
aF61.35198109337382
aF25.96350004805144
aF16.304263856600496
aF18.562066702126657
aF8.28705282233111
aF22.534697746518436
aF11.938804682390085
aF36.618402325981336
aF32.757560596048904
aF23.27410176252496
aF14.547183357054628
aF13.160588666750975
aF12.800925593146355
aF15.64342094318432
aF19.324616972507034
aF7.3900595099669735
aF14.788692204452206
aF51.09211331581049
aF60.365949050942234
aF72.35393744519732
aF170.2929261748201
aF175.9303915269647
aF176.76743195481842
aF177.7246304503624
aF135.61885067166105
aF135.61885067166105
aF194.77456076404462
aF211.1003074225691
aF216.93117645233886
aF219.20309024804263
aF246.67250743538227
aF246.67250743538227
aF273.0331694440523
aF273.0331694440523
aF270.1269650286533
aF61.7957968363993
aF61.036288634661425
aF58.98626244653164
aF57.88305889739338
aF55.570922055257896
aF35.30297301298052
aF11.56270128753194
aF6.514900202010273
aF6.514900202010273
aF6.514900202010273
aF6.514900202010273
aF6.514900202010273
aF6.514900202010273
aF17.398336371961676
aF15.969262123456526
aF15.486254244863174
aF18.429488988289165
aF36.068985547165035
aF8.225479471250644
aF70.58572955022764
aF14.145169223083593
aF11.312214519842472
aF17.65147627334779
aF14.754681368662366
aF14.723441532564685
aF16.171083437320217
aF33.05901345335867
aF23.533525291919098
aF15.26794789767768
aF15.276374802082973
aF12.164465580821005
aF197.9574970554378
aF187.97524217151243
aF163.15925426657284
aF150.24452939047987
aF140.22136702575528
aF2.334070116264598
aF1.6316763890112618
aF1.8128064263450543
aF3.0179478309506327
aF12.780098889824018
aF14.861244882049188
aF5.641372660374497
aF16.77095632331377
aF9.393449886157294
aF34.17179597880322
aF46.988520644504995
aF46.988520644504995
aF51.742275056392955
aF51.742275056392955
aF51.72991730566789
aF51.72991730566789
aF94.47878348523207
aF18.438861163416092
aF20.484131600984366
aF14.829652473301415
aF14.736960827244866
aF19.300782423401515
aF10.886834610572802
aF4.504185961400962
aF10.305230498505194
aF39.72471730572256
aF52.25924843382852
aF52.25924843382852
aF32.082165933213986
aF26.447091561633002
aF27.153761836931924
aF25.218920997867194
aF14.327118922146786
aF14.283796730026413
aF13.941539452065118
aF13.99987952011414
aF13.998358727891613
aF14.030746044792664
aF14.148343060637053
aF14.148343060637053
aF14.148343060637053
aF14.148343060637053
aF14.148343060637053
aF14.148343060637053
aF14.148343060637053
aF14.80620170070837
aF16.60712193380802
aF22.015479169595636
aF21.80045039626115
aF28.705385274694482
aF28.359713696458083
aF29.745426890666707
aF59.463427795295416
aF61.062538660531594
aF40.86937081095397
aF15.297771434478715
aF15.295313675658802
aF11.718021627802054
aF49.07643365407886
aF125.58809657936955
aF125.67197029737491
aF117.54716144861315
aF53.420527406634854
aF12.534302532068775
aF16.927554264309435
aF15.664656194771345
aF36.112914790812916
aF9.886183717271619
aF4.150244470402436
aF10.854151029676482
aF17.74481154217793
aF19.21000512169766
aF88.5612983304917
aF56.88530619461729
aF36.83864590416936
aF3.1057423005044558
aF52.314563498705304
aF21.54096957154006
aF17.327230232571413
aF20.103462732666532
aF4.454667227980341
aF5.7224333566498755
aF18.18990155871113
aF6.554373703431373
aF14.449103725844596
aF3.693517191674074
aF33.163604100950536
aF65.76637051153787
aF39.40612405801176
aF8.188791132732238
aF8.91761278071936
aF18.323282477836784
aF12.50241645556988
aF22.247461909393966
aF2.075591243085232
aF20.69602060936851
aF17.03280870283547
aF49.303057752435535
aF62.918485574898334
aF2.1103736852735553
aF12.916890045729321
aF5.089327478496863
aF12.494062473218133
aF13.30332853497986
aF28.52272938608302
aF14.371188462509188
aF92.16135519528169
aF90.9367452687351
aF78.60521860791366
aF74.47348923540139
aF18.022130922576977
aF83.8403939883043
aF16.320442502894494
aF15.019057987087866
aF12.067329547494962
aF79.44456190420543
aF79.98593102081067
aF78.3642136615196
aF78.48477895205158
aF78.03412510357265
aF64.97057529546795
aF36.39891123277355
aF25.576014294958437
aF3.4580180241156686
aF9.263436628470442
aF9.247996294091486
aF10.082544732973753
aF8.948950986308184
aF9.181095320209408
aF9.229072001256334
aF9.212565340165728
aF9.233122106731974
aF9.224218216531893
aF9.213890366142476
aF9.18499701005018
aF9.186458848884381
aF9.184762646532851
aF9.172549095535809
aF9.14988457272607
aF9.14257707309881
aF4.833054965412616
aF56.88274082297975
aF86.93872111016476
aF103.27984951021847
aF53.778930781114106
aF6.815712260718985
aF22.102982669480376
aF37.186258569389054
aF8.36125256637202
aF12.767227343380348
aF51.33576245533441
aF66.04666104301806
aF3.6133433830391333
aF13.122010895620921
aF24.332942684689197
aF35.15531474840008
aF13.740879977605413
aF14.396497966313952
aF5.3263636670322265
aF16.558234342565772
aF14.571583977071553
aF19.722369352981055
aF26.21456426537818
aF86.16596758345196
aF117.91772746036472
aF117.77929878043966
aF118.75608799510987
aF59.2226285031515
aF101.6828609008895
aF47.84272915184975
aF8.037438409939956
aF13.484305650609935
aF12.398617220901887
aF9.934533709384107
aF8.310024848060023
aF13.619725025353471
aF76.38534936244717
aF133.92004891267598
aF207.57732473270332
aF229.72285990081448
aF186.1399756016217
aF126.01174275258144
aF73.35175652104996
aF19.615555382383874
aF19.675307553648324
aF15.609382731730731
aF28.298883245782786
aF10.938733595967497
aF19.109965464586544
aF25.26489465198375
aF72.10235793379296
aF117.26683059132974
aF106.27404081884059
aF90.9698737374021
aF68.32466659844951
aF45.134923573492614
aF10.145137653255787
aF17.459611406146657
aF17.37580735036678
aF11.886074251395568
aF14.99062828338777
aF26.604994793861163
aF32.81845227207596
aF76.20749384832801
aF91.74987365353326
aF87.95962046400278
aF62.978755806966106
aF19.397461217218414
aF11.862946258929846
aF8.83242759561534
aF16.561750160955633
aF15.699459541247702
aF15.699459541247702
aF10.239785643223005
aF19.4595608287939
aF1.6613015333335899
aF23.366262408926783
aF14.352931229665222
aF48.81385487181476
aF5.754817196847493
aF4.398541461172896
aF4.395272122589838
aF4.471611783694481
aF4.432258355336111
aF46.606071336506425
aF71.43961306777263
aF12.510484669282478
aF18.749887122005216
aF22.21833437434721
aF19.125243510429172
aF13.185758805596727
aF11.439862346820618
aF10.215394328115579
aF23.850607257404178
aF28.834930921110516
aF28.406996295070247
aF14.535352321794969
aF12.606455312675578
aF12.237958475748556
aF31.19705522539638
aF19.763310810054563
aF15.039248466319725
aF29.979469148975735
aF13.151199981350814
aF94.26616260514729
aF94.26616260514729
aF91.8652101319948
aF90.74993579926137
aF13.657550744235154
aF23.648707561948296
aF32.689890670863676
aF12.253855122868371
aF12.253855122868371
aF7.540610732865357
aF9.636923216742595
aF9.783989535239606
aF9.155821113597566
aF21.07511778971633
aF28.04824061974671
aF44.359099941751865
aF30.501796852038076
aF31.566200169806404
aF15.328348020968766
aF11.185300434152285
aF11.93527913902294
aa(dp2
I0
F71.43137612883392
sI1
F29.325184952524435
sI2
F23.068991115571105
sI3
F18.066889959750497
sI4
F167.91157798195167
sI5
F7.356271689766627
sI6
F48.773939484813795
sI7
F16.446203849820176
sI8
F31.810526126657145
sI9
F19.023398342222276
sI10
F36.111839665542774
sI11
F31.88988555585284
sI12
F12.406118600630125
sI13
F49.581735171819965
sI14
F39.28547723552981
sI15
F19.65744955970962
sI16
F63.020517159799695
sI17
F18.187459843670375
sa.