(lp0
(lp1
F6.050264994205299
aF4.857076662931564
aF42.422570392982394
aF18.742131009058518
aF53.68382990652559
aF11.281108305438778
aF11.281108305438778
aF19.07870543269697
aF13.678646169074089
aF33.01879836941095
aF7.157033645850427
aF34.73810683387906
aF65.747437919756
aF94.06295722261778
aF97.91667979462899
aF162.29391537592892
aF7.0572302520117
aF16.023948512675933
aF14.449980491180508
aF16.178299081288753
aF16.178299081288753
aF16.178299081288753
aF16.178299081288753
aF19.330315727203566
aF16.178299081288753
aF16.178299081288753
aF15.034622738576395
aF15.034622738576395
aF15.034622738576395
aF14.490465313076076
aF4.525748148273824
aF4.525748148273824
aF4.525748148273824
aF4.525748148273824
aF4.525748148273824
aF101.83542953539433
aF158.9799251738644
aF90.48988556027851
aF19.032574365724503
aF15.116294403917852
aF24.051697464734502
aF51.01191713997654
aF8.493614961049541
aF9.904470144837612
aF8.311624701346116
aF9.59983829893229
aF6.491129854158746
aF4.693247508079328
aF12.297847174650478
aF15.526575313961597
aF82.27481934186055
aF18.931870512909473
aF26.211350481765674
aF41.24882832991371
aF80.94180789638702
aF87.21858604310731
aF35.40957572858668
aF138.71776577185912
aF95.7058237860032
aF51.057362148344524
aF45.44581825355414
aF12.387535703469267
aF14.006370625125518
aF6.463200448145702
aF16.897392561396664
aF41.7336200217979
aF2.8149643886415583
aF2.5204833721877318
aF49.53230811825206
aF77.84021410884931
aF9.511685107772704
aF57.33869388706051
aF32.74760432209274
aF58.14461013932341
aF12.395693118560006
aF17.753923741524105
aF12.770933660672329
aF25.57481460387005
aF21.706496210854677
aF15.792288285610576
aF10.727737506637364
aF9.368692179507056
aF5.466878896544724
aF17.517756366157233
aF62.918548298094855
aF20.733590880588544
aF15.44099830335929
aF7.439575249443405
aF8.456094513162896
aF7.18928443820079
aF143.8310646379244
aF170.96435121859645
aF201.85687201434436
aF222.82102794674032
aF204.22708876798896
aF177.8877976670754
aF163.4235361955029
aF112.20115800422477
aF36.18239199415956
aF73.92065196040346
aF133.5944118721639
aF72.58511628092492
aF13.624038682376668
aF16.934748129017127
aF9.289106845405716
aF40.02709815660623
aF104.66165917216622
aF105.82178130543798
aF95.0063023856363
aF16.303951400972668
aF21.152839523033382
aF17.909787507147584
aF20.12404730578367
aF42.15856302849404
aF11.260415837734426
aF25.579084481216
aF5.021757307347175
aF35.039588523601985
aF62.70635350901408
aF52.70300124428636
aF7.515678212042202
aF59.844113068658686
aF70.46585105624852
aF41.652458078051815
aF16.05054086483381
aF4.848381715759535
aF11.706285861686933
aF9.517843064242488
aF6.026467753669406
aF29.491087415961374
aF79.92460798328429
aF55.06460185553707
aF36.306607617495516
aF17.034475858858396
aF12.804230350082952
aF30.135666718222787
aF12.767917000285424
aF40.38309650014783
aF129.02502579776336
aF177.2379362368708
aF210.01088324871588
aF112.08201969345558
aF41.587349870277066
aF70.02857981768854
aF59.316985755016994
aF29.615405309757485
aF26.659497141990474
aF12.905609873971294
aF97.50763681444641
aF40.40227081653184
aF6.697888912900543
aF7.510773928174744
aF10.557360674404586
aF11.40523873067085
aF13.361386047630285
aF13.361386047630285
aF9.606202454947198
aF11.572177314519712
aF19.417453868247144
aF13.14513758777222
aF13.158746177559687
aF13.151866829702659
aF37.30451945084817
aF1.6484198913809864
aF34.651141921283745
aF20.335533132678144
aF14.645382248649048
aF14.061673422565086
aF19.502698379627226
aF19.45526494047944
aF19.589113029818154
aF20.812608864975317
aF20.898835746456115
aF119.79420942159382
aF71.05953300398059
aF8.913229895081395
aF37.96638184517203
aF11.017472833664922
aF96.03250148855498
aF157.64924372724667
aF127.6752153030451
aF49.435938947718384
aF62.084926557978356
aF71.86849582386064
aF77.57172168488344
aF66.2313554089731
aF13.556135717106779
aF44.05992818613399
aF123.19873463298043
aF27.840007819443823
aF16.988345732615894
aF37.49040390887723
aF118.36982666480753
aF70.90039388240592
aF69.16650679735407
aF16.172981341416776
aF17.708929394421872
aF7.556175866760425
aF7.58358947037663
aF11.109947242143848
aF38.57489998016805
aF59.03705714686511
aF18.638411363565705
aF93.76727929914426
aF93.76727929914426
aF15.162125246905081
aF12.31791422414458
aF20.325297658337984
aF99.08209010484339
aF37.74224948003089
aF18.27318695548973
aF17.400648708477526
aF19.50165643052009
aF19.48176212108974
aF18.252963619746417
aF18.349458755145555
aF33.162934565038945
aF40.40876344778147
aF148.28283004982012
aF218.8940983707906
aF175.15419563235787
aF85.66917794022535
aF51.993980083737334
aF11.406645540610048
aF20.865402495991415
aF62.92054405974908
aF18.10266680454353
aF8.212600374875045
aF5.6060808868271845
aF26.1115267268625
aF18.713132091325136
aF9.447559518555392
aF27.935294107655377
aF37.175401498164796
aF49.0495127109023
aF72.78777247795425
aF61.36814536865906
aF9.387656168519207
aF7.814290325626799
aF46.788729187486695
aF9.811876155743112
aF11.28348001916659
aF37.86064525526725
aF48.94219300644183
aF9.12423557306718
aF50.27925010776322
aF48.44766959110456
aF27.219536234450334
aF41.92228239196723
aF66.82732766631109
aF29.89091060362194
aF136.3651621483891
aF65.01792940992965
aF106.78300081847674
aF62.24828328346669
aF213.2661868720664
aF242.17778085500444
aF202.9895100565697
aF143.15045281535066
aF176.14587969816503
aF158.7015132749118
aF92.45844520004678
aF34.03346919765715
aF5.419313969620832
aF22.48576329930914
aF68.70282086751492
aF5.043379488522746
aF14.774085701968742
aF16.98142025406961
aF18.816910151748164
aF11.213779852414142
aF23.10545778721708
aF40.368323603268806
aF20.580921096920832
aF47.97254404009207
aF6.397561905311454
aF6.397561905311454
aF117.19493855561126
aF132.0864094682748
aF13.921323715599161
aF14.434546322044643
aF14.604068969593042
aF14.865310876081105
aF10.215949907482905
aF10.218119643696205
aF10.171295061070861
aF10.150887014301563
aF10.152499460921433
aF10.140653366892504
aF1.8660316482835486
aF26.05963210194149
aF4.603598613230861
aF51.00433819975641
aF53.841417515041265
aF38.01361893964738
aF27.691531492365282
aF31.971630061692558
aF11.362537521039533
aF70.3746582710175
aF49.41516473582142
aF6.358982853093449
aF50.91485169127281
aF7.692153840835891
aF7.433972974339544
aF5.044052160429366
aF38.078560313800544
aF44.852014801712265
aF14.874073443455837
aF40.55794567858155
aF23.683808150626895
aF37.97785035808158
aF22.629091791933728
aF39.81478193424683
aF34.07113356338932
aF30.352195516940792
aF15.199079332471248
aF3.3006785678952784
aF64.71490159015859
aF63.85881840497266
aF99.57248795903962
aF110.88996885202397
aF130.9109142976158
aF112.6214294046788
aF10.874438470067583
aF23.151251227074937
aF24.208794994062956
aF1.9397935420142631
aF28.704737281589328
aF53.289602596479966
aF39.09498544990536
aF144.08678805182615
aF90.72774303525954
aF72.02937168989116
aF129.7546197416967
aF95.03027162062072
aF93.29202440357145
aF50.45773233762685
aF14.638067841761618
aF13.93420500759586
aF13.9949781758062
aF14.58831284516839
aF14.354617456191201
aF43.06237049657376
aF43.86506170009908
aF45.413463947476735
aF105.58463659263056
aF99.61999397874219
aF92.52244106764564
aF9.037794049041132
aF11.158987851807886
aF20.890117120383028
aF12.416783725888752
aF12.416783725888752
aF13.985875176004022
aF22.18718809416575
aF17.967929541980997
aF5.486940220569812
aF8.646649612862335
aF10.34490183887179
aF30.296316319227138
aF10.187269414556756
aF80.79631662546156
aF141.7558266461705
aF103.67174980642972
aF124.54933360462343
aF8.511986159908972
aF5.694423464267404
aF26.878844837297134
aF23.82932254431155
aF7.535233137786681
aF10.152850942364081
aF75.35632753208311
aF19.30682201422111
aF16.01061760227533
aF9.005468436708993
aF9.41684922624294
aF76.61886123901981
aF121.53625104254048
aF67.3455582614095
aF43.68790022562895
aF13.325389454937298
aF30.82900629702306
aF5.690123111878538
aF3.4820973358919347
aF20.830637172191125
aF58.250991207148694
aF78.50053291330298
aF49.456687695717584
aF29.416034934456498
aF12.610136463939622
aF14.965372114491148
aF15.12408944867896
aF31.481833821712655
aF48.71215913006354
aF58.51530675184096
aF19.289039886278236
aF21.25939642884758
aF19.97373641685869
aF14.853928866101988
aF11.845565438581234
aF5.900773387208475
aF34.94401329114946
aF84.5826589460417
aF85.4159249347671
aF109.37190621854236
aF98.25284920719834
aF30.08223618866664
aF76.117078270511
aF11.475604778561053
aF55.025103530554695
aF29.533284641947056
aF6.748776601470736
aF38.60218827496662
aF1.7370016001287172
aF13.811829051934632
aF12.672674699767736
aF8.410915582918198
aF16.447515580935526
aF25.848284206640685
aF10.587776042531658
aF9.02153700334992
aF18.697062827910514
aF10.777568017954987
aF10.946956889453382
aF22.212353611667975
aF22.07498622240435
aF11.973201052855122
aF11.844192306918925
aF11.080649799425695
aF10.92435414319343
aF11.725365895669102
aF11.85203148028678
aF11.748338188399934
aF11.715271739080585
aF11.845428836470385
aF11.9351838548534
aF32.37800849061812
aF32.34663961299804
aF32.346867911491884
aF9.202283986645218
aF3.234134354002157
aF52.86617038062339
aF13.059269933530484
aF10.35093052410112
aF11.732433935291322
aF15.786436041233266
aF24.633430795310822
aF11.606217797339278
aF9.84268897408406
aF5.355095723405273
aF21.64949080543191
aF75.78984404507065
aF22.030009064687526
aF11.671002266225607
aF14.037192876485351
aF11.691541021732375
aF9.661253904960715
aF13.926825890754527
aF8.862185468049018
aF27.16877818567993
aF22.06116829049619
aF11.749612453412356
aF19.141652544461472
aF11.221037274820613
aF8.399637055932136
aF18.799055202116367
aF18.454240689271934
aF3.6704125026344707
aF25.01627952490649
aF15.337060236545563
aF23.46036499069397
aF16.99778398337141
aF5.017517368204633
aF44.09434418052747
aF44.09434418052747
aF14.019715145513397
aF22.896813079708345
aF12.186526595073442
aF17.096992702301478
aF10.830995259143323
aF7.459618445601959
aF18.672825991386304
aF17.04204106469261
aF3.724870866402042
aF21.78971787275895
aF45.03185079862928
aF52.454371176161395
aF80.75702013196366
aF99.08256260151605
aF117.7846383733049
aF51.00693765695597
aF30.964660217640887
aF8.852241123996818
aF23.212176649190393
aF13.674323992076218
aF13.098670018044428
aF13.098670018044428
aF30.62385881123033
aF49.42477446694395
aF94.34855321090711
aF42.13719620185066
aF38.05358948093581
aF16.872990979053455
aF2.1271106699776876
aF27.425025860520865
aF11.25327768468013
aF44.493677700232446
aF8.308764063772383
aF13.137099210484262
aF16.382265435362452
aF10.55909069233581
aF12.704074245441374
aF30.04318748672272
aF10.525786664945311
aF15.608512827654254
aF12.808672943508219
aF14.537880647343444
aF3.411148695263427
aF3.524846307293885
aF13.774564580738073
aF8.2245856616345
aF26.97088022232983
aF27.625462351894328
aF10.58459351365723
aF13.062886097649507
aF7.458626792344547
aF7.351165623865469
aF19.29992832948093
aF10.609900731933942
aF12.544688469254822
aF14.273995167101914
aF56.735793851336496
aF11.34921558750699
aF4.751929430283117
aF37.16140409474513
aF5.0494080085333035
aF21.698565692929925
aF13.458150597395257
aF47.89121003965242
aF2.66313822765166
aF12.838285666126298
aF18.76842198565394
aF18.343539439911293
aF34.49945175866481
aF18.2615614720122
aF5.272790187525674
aF22.66091234671919
aF53.33746821822994
aF16.102006678004766
aF43.34664859253619
aF75.25333375541906
aF45.13760566409701
aF26.588099723167115
aF68.99992847498048
aF6.3896701225025625
aF22.81779501704818
aF17.177304064739026
aF19.249462785824935
aF13.420480127639973
aF25.114062079160732
aF33.81458744972061
aF27.26901739445244
aF18.93917771201641
aF19.71641683000063
aF24.32388991516955
aF17.399065192249193
aF11.978093925915053
aF32.03269904698961
aF27.565818194471582
aF45.27688958127904
aF93.18940470206276
aF10.526427173337012
aF15.587988050083956
aF30.503949408389282
aF5.503334133717025
aF23.260633975381236
aF56.373368634896536
aF13.22966243400497
aF35.54205709452986
aF14.296490269245064
aF8.584166788181879
aF29.115529486276973
aF12.297135861092077
aF15.332454813446372
aF10.56253736001141
aF37.25795242844589
aF27.42030083965917
aF35.96486653417945
aF17.12247145842943
aF1.8927388267805576
aF16.14352986283621
aF49.19366883907776
aF24.800977429577753
aF6.981745679727436
aF4.6057291299844625
aF8.044003226771547
aF14.591613964410538
aF14.782821507043472
aF82.2292582503449
aF91.41687791845467
aF119.12885397072304
aF129.4303722759252
aF130.41498934612625
aF138.2995348897261
aF173.0447542039673
aF121.31302057121887
aF82.57008882961439
aF33.496334665577976
aF25.7063200218973
aF22.626700313253533
aF14.692269140111533
aF16.03920302201057
aF17.359790813543814
aF13.415387536435132
aF28.60033299808945
aF10.998365057905307
aF9.7468998332392
aF15.798305916760016
aF15.457547969173334
aF14.065399390975019
aF13.928013313567693
aF16.84871464733868
aF17.65637493338386
aF16.592094818449436
aF16.491600415588714
aF16.08220726124361
aF16.052069421814295
aF29.75450734375281
aF29.75450734375281
aF9.628574940070946
aF15.410065923741517
aF38.20765793241195
aF48.77147804921396
aF11.236452356448826
aF15.038842895431042
aF33.59840934622787
aF16.22900952409889
aF26.840265461499204
aF26.840265461499204
aF23.978668838550785
aF17.108705493033256
aF12.38571944003582
aF10.499400890977602
aF6.2605333638033045
aF11.305917126007913
aF2.815682942512184
aF9.21807734075487
aF12.275736016869955
aF9.044983832311438
aF8.503458285591265
aF1.122684077014226
aF10.97972471719352
aF8.510010356824356
aF14.706614649237338
aF11.309278347621335
aF11.309278347621335
aF7.290422707520852
aF8.068109238267555
aF22.6699408922829
aF7.931678943346404
aF8.753267692192612
aF8.753267692192612
aF7.351856930948212
aF7.351856930948212
aF83.76901908408547
aF29.656503421911502
aF6.742698028079403
aF13.051678903802388
aF39.4582592020649
aF110.88894696650031
aF194.3785632782103
aF142.73339005032923
aF126.43648184363647
aF139.47345474358426
aF159.3804677065288
aF85.47215023602863
aF65.49299175403229
aF68.78561778146269
aF50.787539543692375
aF13.142802033086621
aF38.5137342864247
aF58.67126791503122
aF4.225336821314512
aF26.173188424342044
aF3.98326432148349
aF18.051547854715057
aF29.866373266397876
aF45.994911274551704
aF12.688851269096274
aF40.318030993954466
aF3.8294547203438722
aF15.10898866348062
aF28.144245574969286
aF10.16617279929611
aF12.725287673064079
aF10.339844790161742
aF9.69217056792163
aF22.557264741959052
aF8.223421756581628
aF17.58330719400692
aF10.775307944157511
aF5.4886464018072685
aF15.688913167134178
aF26.63578368447346
aF22.00999918295189
aF27.670559823488016
aF13.452772458729948
aF12.002524063277335
aF17.07522318040448
aF15.399514043522995
aF32.81303977609181
aF27.94327543444971
aF17.78055818972544
aF6.6778543527496135
aF27.40001609130513
aF66.14160119002932
aF66.14160119002932
aF45.03288127100055
aF10.427812482007788
aF29.487545339528484
aF47.066947871576964
aF32.909784256931964
aF9.666678138068853
aF57.431334583548015
aF96.98147904193273
aF85.09236814419782
aF23.310628654580245
aF6.907656407520606
aF16.881490353290516
aF10.340548882577632
aF91.2470102851993
aF100.95126766900323
aF67.34466786420494
aF29.662050117803457
aF15.754067191739082
aF14.412306087724863
aF36.98191989278468
aF30.583496369794982
aF4.0118130966363506
aF18.452753436020608
aF9.32890299213017
aF26.439927598140375
aF14.587803465041723
aF11.901046515460525
aF11.068428260329537
aF13.947322472256936
aF13.792409639280965
aF13.522111593878465
aF13.522111593878465
aF16.367528929259173
aF7.9040502664610655
aF25.8843497012095
aF33.69847764441611
aF5.239428891177442
aF6.174516070719974
aF6.397561905311454
aF6.397561905311454
aF59.45590230970445
aF69.18188733772274
aF10.747483188640542
aF17.17189440536576
aF15.097803923701498
aF22.08510820061043
aF12.104454407431554
aF21.705199102899932
aF11.192526669247405
aF13.018180436487413
aF8.816512262847464
aF11.124145741844965
aF8.662819862618122
aF15.28538847257675
aF6.20643578870095
aF20.536801940980723
aF26.826764110511803
aF7.467743356862611
aF3.1576155861059974
aF22.93903532714817
aF27.23652951987449
aF6.240167039440487
aF13.411845357077384
aF17.768898875138426
aF65.96909951932835
aF65.96909951932835
aF84.9021904405363
aF118.27385989769994
aF135.0668134245543
aF110.38936723762697
aF106.58564701926795
aF67.2123492089351
aF9.330298453479045
aF11.001096202728773
aF22.04564949256457
aF38.06623241097271
aF45.195279718405644
aF67.70467525392553
aF45.23454717805938
aF18.780129944825696
aF37.85558717678624
aF19.728143376267976
aF10.912458173140617
aF28.257233213239658
aF10.001161711911854
aF13.61168360940535
aF24.16130826089862
aF29.091489270854037
aF20.77651212039462
aF13.288947209689248
aF13.123399635721448
aF15.447128094252665
aF43.09952008757953
aF15.170714209315374
aF15.846710662112548
aF26.025908956478542
aF16.712757709171004
aF46.815056451729234
aF38.20518354244402
aF15.088039362652037
aF9.250916159825113
aF5.889461747193678
aF24.702344765953107
aF1.632004760788299
aF22.736490395630636
aF14.003645593092255
aF16.121724072657052
aF1.748440393875334
aF19.67380513706476
aF5.54437549353708
aF13.647753752145338
aF14.000500231620002
aF11.317947210077547
aF11.486452565289792
aF7.3412654557357
aF12.891910067970699
aF21.71929475914683
aF27.81268255667024
aF18.969698420807752
aF71.485264531298
aF11.206897610074373
aF9.261996061421211
aF27.163175761501936
aF29.828763598861205
aF12.535973861571659
aF17.06126256227951
aF23.055880429963583
aF12.042897636636482
aF29.118011579183694
aF21.29794563197014
aF11.179075090505723
aF11.910064203268023
aF11.654397221980272
aF11.490668202976357
aF11.216373802090935
aF13.316836034283074
aF15.568579177859826
aF5.47580728983967
aF39.25221039953491
aF15.498834382446853
aF12.259327408898061
aF12.259327408898061
aF12.259327408898061
aF48.54932743787962
aF4.692138694956937
aF7.370625234435335
aF26.557662631056267
aF26.557662631056267
aF10.30381209913596
aF10.30381209913596
aF11.623367173605628
aF54.10153358109074
aF55.50533308930289
aF55.50533308930289
aF12.863214496532361
aF9.096177235642562
aF9.096177235642562
aF31.12305179524634
aF31.12305179524634
aF15.109385834984332
aF2.799258748463209
aF21.228811587695116
aF36.3908494037722
aF36.3908494037722
aF68.68316034964595
aF9.189757685351735
aF6.427202620969823
aF6.427202620969823
aF35.50096159745595
aF20.438744024075934
aF17.365976934583237
aF42.48140903371594
aF97.90617293878877
aF150.1184276507231
aF204.55981346694506
aF232.64062459010214
aF177.51123571894303
aF167.11223626200865
aF140.99804067211974
aF129.63486098806607
aF102.98169890148965
aF61.114140661393115
aF49.115644555406874
aF64.44952171753191
aF10.52093548833687
aF10.172957878671067
aF4.236052998432978
aF13.824223274668054
aF1.2579878492660475
aF0.33776142126244957
aF0.33776142126244957
aF0.2870553882912863
aF2.2921384022043174
aF12.973157633911457
aF121.64454832673209
aF120.41479330887455
aF15.228516833058157
aF7.184540291129765
aF11.67195960792739
aF7.184540291129765
aF13.756786118828277
aF8.924160890833857
aF7.184540291129765
aF12.237244043277553
aF12.237244043277553
aF11.71447717546664
aF25.06511260542804
aF12.450143829489013
aF6.516585477444299
aF41.93240949574764
aF59.872426223127405
aF81.94294460388485
aF81.94294460388485
aF98.326408188098
aF54.681121715697564
aF19.823192592389887
aF20.99908638392634
aF15.440172250548269
aF15.440172250548269
aF54.97026945824837
aF78.63886292031556
aF54.946443244321934
aF116.23022094297599
aF116.23022094297599
aF114.53641342052575
aF114.53641342052575
aF115.33896352907767
aF115.28045270534744
aF53.06985258574036
aF35.505976844228776
aF18.173665405223275
aF10.44619445890511
aF6.9139663340365
aF8.006204867087437
aF12.503266465499943
aF5.231197239470743
aF10.541612745867033
aF8.843611303537616
aF11.589679308582115
aF15.526575313961597
aF12.359099772872012
aF15.526575313961597
aF13.167126595646014
aF10.058752465968393
aF13.27009743318146
aF13.27009743318146
aF13.27009743318146
aF13.27009743318146
aF13.27009743318146
aF13.27009743318146
aF11.804014184979584
aF9.610242805103246
aF14.81866596115576
aF58.058046156983025
aF58.058046156983025
aF96.0017917209768
aF119.44108520657663
aF95.32758738792838
aF102.26726024840168
aF125.27730774500706
aF60.993516446144156
aF32.01553857311682
aF9.87445141697316
aF18.56421798459941
aF5.665869447397843
aF16.06137705700285
aF53.66507033235804
aF65.51272639690804
aF136.40239341915398
aF153.27399351219222
aF166.2506015989929
aF88.09950469511377
aF9.738776953208031
aF13.30780208468422
aF14.527596880845723
aF33.99410929909812
aF1.4300815795517798
aF7.285660090845508
aF24.043381258872117
aF32.26630464762356
aF30.769427642760647
aF37.21116745831231
aF37.21116745831231
aF9.808332024649742
aF12.39190364110663
aF11.002557895599624
aF10.937424179793721
aF14.94197146282227
aF14.94197146282227
aF14.94197146282227
aF14.94197146282227
aF59.58361173273209
aF62.533832088534275
aF65.33398190023075
aF67.00520780635378
aF18.377877123825886
aF14.92842905901969
aF13.406370274878359
aF9.682505313372811
aF9.814660295594578
aF10.517320015156098
aF10.985179160193237
aF11.549811820068633
aF11.58492475813991
aF11.60336455496991
aF12.526799081599425
aF15.909446376841368
aF15.245439286870933
aF13.769595765028155
aF70.33452772335887
aF43.52161176226301
aF40.78669567827461
aF9.99803426578918
aF4.50961500259878
aF9.127208183925525
aF21.187452784633138
aF41.154659507137225
aF50.76471494170968
aF53.49761723462054
aF20.830630902555516
aF11.566615120088509
aF32.6622396295209
aF12.686437046172385
aF10.967544651263456
aF39.76201349770075
aF16.278473611662992
aF10.533919812970218
aF6.547855548534864
aF1.9530247111226202
aF12.344502744069239
aF35.116514784452626
aF38.84375615553172
aF10.3564978765366
aF15.06262710059035
aF71.80945518417865
aF97.12648624546138
aF23.95732597703105
aF20.27551381021735
aF16.881357766891412
aF4.484107318933916
aF1.4064440930156696
aF12.508223016668614
aF42.67223094178676
aF87.68274740625883
aF64.53778238714513
aF9.095716972739266
aF10.45360739212115
aF13.566260376733826
aF15.937760934369715
aF21.69998122903455
aF4.616581727125362
aF19.159820968384206
aF6.249782058024361
aF22.379782920156323
aF40.49640525497688
aF4.937494300330859
aF4.1772838105885235
aF18.88689983907267
aF26.82914761815648
aF3.7609532543513255
aF27.465052316283927
aF82.80959476109051
aF88.09501321213229
aF73.28184151546053
aF62.72174996377287
aF12.571356239622201
aF8.531416668690321
aF5.410139712744169
aF7.606323416831393
aF18.096849832742937
aF15.83878530909312
aF14.795893733293095
aF14.631562223996246
aF12.568525740610381
aF12.04656523538447
aF11.904731519666647
aF10.088836559267941
aF7.737962886820405
aF5.459144038951385
aF3.519382623083702
aF2.676605032286167
aF32.52058795023077
aF32.485314316661004
aF32.37334425322709
aF0.6865683568431256
aF16.685903832241124
aF8.797082898534658
aF7.212550069613473
aF7.212550069613473
aF7.182094679430093
aF7.718084081635017
aF10.355817552269281
aF9.07406827845177
aF6.2166800798230595
aF5.334024228723062
aF5.221318662085971
aF5.221318662085971
aF14.967979017430046
aF20.392656377747745
aF70.90918783232945
aF12.147081280588464
aF8.42557756575255
aF6.656005101208201
aF9.378417184880153
aF7.05279359823253
aF7.305123944375943
aF56.19960601019322
aF8.754833291682873
aF15.957594707463967
aF105.0788487816515
aF102.17384622078929
aF102.17384622078929
aF73.29216169045239
aF73.29216169045239
aF20.685399294020414
aF29.883527194907902
aF4.375397840788245
aF11.873638141430556
aF12.237244043277553
aF12.237244043277553
aF18.829793473682916
aF17.570721692613606
aF15.950604606254831
aF15.237422215587038
aF15.237422215587038
aF15.237422215587038
aF49.70358737384366
aF45.73872789276601
aF45.73872789276601
aF3.885032067772428
aF2.433653471116473
aF2.433653471116473
aF23.424930054372965
aF7.536611729158088
aF16.75568211328101
aF7.785981126242415
aF47.42813385763142
aF90.9442745880334
aF72.52497875446672
aF56.41425697054615
aF17.330535452844472
aF8.686691973017806
aF55.755217811434015
aF96.817686816244
aF27.71795950737825
aF42.20771002245456
aF27.679897756331822
aF10.025714856671526
aF1.8604411450635794
aF5.092422427538091
aF8.554742707183122
aF16.835509883075076
aF20.6695431478794
aF17.123791417902314
aF63.90106728250108
aF35.05066531545812
aF35.05066531545812
aF13.942672117721948
aF45.35931093956549
aF14.693095140192126
aF14.693095140192126
aF6.908081869013387
aF4.975749833956679
aF4.975749833956679
aF9.212117528599265
aF100.6090740156212
aF100.6090740156212
aF47.185777069980624
aF7.827564269824436
aF15.060243665663275
aF10.770059478598476
aF24.38962363154193
aF9.218875007976505
aF5.641355492145561
aF20.50165952118964
aF11.018934568673824
aF12.288970775094999
aF24.47296404697999
aF54.21441495758229
aF64.85685030343018
aF80.1682839194372
aF55.63179480199123
aF28.32882724534621
aF5.373263846003908
aF4.946276902032854
aF4.9331106413120205
aF13.67601922183537
aF10.088842924218744
aF10.472708028257966
aF9.223295202714057
aF13.491398897318163
aF10.64670540451311
aF10.64670540451311
aF18.02027165781026
aF16.126471455226543
aF17.55259899457511
aF16.70980427181186
aF16.70980427181186
aF15.848771613058057
aF2.767013255554157
aF14.941318911960343
aF12.327274001024428
aF18.221056540815972
aF18.468900066289336
aF7.407080180098279
aF6.877474125567987
aF37.18384358362004
aF82.26549214118475
aF97.99949204712468
aF36.50403073868155
aF12.918340176607614
aF20.80488527390904
aF13.910656763733394
aF27.000685830546043
aF37.069179826852825
aF15.06262710059035
aF15.06262710059035
aF13.43527639282934
aF15.688237388474118
aF15.772749300214079
aF12.11911793642711
aF11.957722347550954
aF30.351696471532602
aF56.57157339906105
aF9.363604858244019
aF24.015379850979045
aF63.058964025342846
aF54.40428888291051
aF26.81171682088846
aF20.233035973646032
aF5.5451743109206495
aF23.054835090216585
aF66.69365442675134
aF96.27867681025027
aF96.27867681025027
aF141.59875355315089
aF140.11258470583954
aF116.9529832404091
aF98.9644163193874
aF71.12129115287443
aF71.12129115287443
aF45.104017032036566
aF37.259246381447824
aF18.261138128079185
aF5.222926421055305
aF16.189040289744536
aF9.632392406250135
aF11.070041999309892
aF6.876404062836345
aF0.4396641960605871
aF10.692009139985574
aF4.997070697954831
aF6.188625219760019
aF6.635371191690939
aF11.173650463468014
aF10.436676925943857
aF11.15497504458742
aF11.784681311038097
aF13.561565131270394
aF13.561565131270394
aF13.552997101091046
aF13.552997101091046
aF13.552997101091046
aF13.528154458452066
aF13.528154458452066
aF13.533006228664386
aF13.537723503185715
aF13.544859756525948
aF13.544859756525948
aF13.445260131623298
aF13.350794202370713
aF13.347067251611403
aF13.080419275439189
aF12.726570693281516
aF12.754256368338943
aF12.805975743113054
aF12.809603321871958
aF12.809603321871958
aF12.809603321871958
aF12.809603321871958
aF12.810812516740697
aF12.810812516740697
aF21.611613765840133
aF21.39897588868898
aF10.550819954148862
aF75.52991388291336
aF82.19612976767901
aF37.11988699006043
aF2.6265613371999965
aF14.190738234470183
aF13.27009743318146
aF15.537101849144568
aF13.473706762164575
aF16.33457122261246
aF5.639731035348882
aF8.411025533560366
aF52.9575265332555
aF7.3756894633277525
aF12.27576679606565
aF12.182788995377464
aF28.31195439689243
aF5.049981187251421
aF1.936199077204708
aF7.025082129484394
aF11.424899911216798
aF14.005664496121705
aF10.87418362670747
aF15.069884258977781
aF15.06262710059035
aF15.06262710059035
aF15.06262710059035
aF21.085964961065432
aF28.615090071209785
aF10.030470816511237
aF21.985913856976666
aF8.782442971835069
aF14.771440983164817
aF10.991019543811731
aF24.895132886808284
aF67.92159153297237
aF61.668968544049626
aF12.713370375093673
aF7.0671654483884305
aF19.42729616829748
aF36.791402877877005
aF48.497572086140664
aF41.06735683972698
aF29.255613126840952
aF26.297005037053054
aF10.85843387215739
aF31.0464124377862
aF7.971986831778813
aF7.971986831778813
aF10.52122480917124
aF10.327791603586542
aF60.09914358494891
aF17.726124264292768
aF17.726124264292768
aF40.37321411972559
aF69.27740105839757
aF60.59074274183398
aF30.772339403586912
aF24.473400532766167
aF8.356239586725133
aF1.6016004472429097
aF25.336390057678088
aF11.123260306848973
aF17.816665064015424
aF32.12568729642779
aF48.05375664820596
aF29.7937868212882
aF9.24592482239938
aF12.75711222390174
aF32.99939448477524
aF49.9891025160382
aF67.09725665852577
aF19.352983563600556
aF12.61570107876262
aF12.490517048971867
aF39.6515089727964
aF52.82125590373644
aF79.56600875773705
aF54.4753262033483
aF11.775246822124332
aF14.583229783705777
aF4.970198963588808
aF72.54271636994693
aF17.093817724577928
aF19.3502201659045
aF5.901336739154046
aF9.049574238623652
aF1.9019795689493046
aF4.0772631439412415
aF14.565507405247978
aF39.152855455834484
aF53.973171012849555
aF7.044261296611758
aF19.27158321534529
aF36.13930684697232
aF25.54395323107445
aF13.630981520668746
aF13.382024099052956
aF9.763131691339028
aF9.504818697245312
aF49.58428536895685
aF102.24265714710643
aF53.7246472836993
aF89.0174873343813
aF96.59391273305962
aF43.261036043575274
aF23.32045603117026
aF16.0432022321334
aF109.55907606878681
aF157.93480423697895
aF29.421805856081452
aF16.260643161530876
aF7.928103453823993
aF13.624038682376668
aF9.097153986735918
aF14.06601740836497
aF62.97684496729614
aF51.965943502741396
aF9.88143767681393
aF13.202218085644931
aF35.93945066512371
aF40.45219661075361
aF17.387256653745226
aF13.491510550381985
aF16.52794748985125
aF18.594185766186932
aF2.3001292750801987
aF12.442874134255629
aF12.714570260178402
aF12.36533148886229
aF2.039440206509918
aF47.03007479850451
aF15.416640189790117
aF43.16200838598322
aF61.34090031516881
aF9.083773842760444
aF32.67101286974273
aF22.312406597608245
aF12.81974935012142
aF51.39626001345538
aF7.305541490599245
aF12.358995178767703
aF5.790354894702429
aF22.217675792373168
aF21.82053299149407
aF10.262815405229162
aF29.939529552444057
aF67.02195116829138
aF63.96565537722347
aF21.545671038752715
aF5.826589277815402
aF8.670557130326339
aF12.468977809537302
aF8.996278095418244
aF11.179036094684824
aF16.37732866579131
aF16.001485275426734
aF14.370291655992295
aF5.3637658887590725
aF8.965562553419595
aF43.495194663461284
aF5.955911738950529
aF15.862136741476057
aF110.37013738793068
aF3.3896963513824367
aF10.851684248662636
aF10.851684248662636
aF10.851684248662636
aF72.81202769615568
aF81.08481232933917
aF99.69567894794329
aF99.69567894794329
aF140.32133666125432
aF142.5532198242943
aF18.211680726964946
aF11.789967256559331
aF27.098569403232556
aF12.146329076011208
aF30.238863542088453
aF16.674012994897033
aF15.676121359829294
aF2.882032158399856
aF25.8866416736357
aF25.812269904766595
aF13.87596851941781
aF7.636186998773337
aF11.611288223299805
aF28.167445356909333
aF32.6374697085676
aF16.02148399434451
aF14.055581308904197
aF153.2646886338259
aF141.7050663334508
aF106.00694637628176
aF24.416088407301483
aF110.11528241397903
aF118.46402668717653
aF46.33649736338345
aF24.664112252911632
aF57.062330210125474
aF7.5766957237318096
aF25.984595664949556
aF37.752793911649654
aF8.67115844894482
aF87.63035873912237
aF123.1675924486975
aF14.276433475841685
aF34.3565720789942
aF31.770525047035072
aF39.77138901773783
aF14.272572296154621
aF18.691748093042793
aF38.056044895754674
aF51.022880765530964
aF14.308207784482713
aF1.838850573096927
aF13.049753407480614
aF10.50883758247608
aF24.72197124544565
aF12.239161287199522
aF139.8087223195662
aF120.00736999507554
aF44.42908637390208
aF17.835781850227264
aF41.12848597176557
aF8.543256295838725
aF40.26704423044253
aF12.117563164682714
aF21.23379297648047
aF9.212117528599265
aF61.56817605302008
aF48.40421132595777
aF46.80587747811308
aF172.39419355685797
aF199.1110801052772
aF232.28065849376136
aF10.501598655962209
aF10.501598655962209
aF36.35675121887433
aF7.507258595813228
aF17.914605497659952
aF5.018486563748704
aF13.266884552187635
aF66.0746021348022
aF10.587566014190381
aF27.13255942951764
aF11.79597127348354
aF58.14461013932341
aF9.49437294215838
aF18.19790021811034
aF8.749285067755286
aF11.519624354399832
aF116.01653902741444
aF22.698834304705667
aF31.69326836659133
aF10.495687922081823
aF12.239161287199522
aF11.076293347636634
aF7.242342730020032
aF45.32980012472404
aF23.96417543001959
aF49.15729802180819
aF24.47135502564862
aF15.789111425845478
aF7.988704948053163
aF3.20100306474545
aF3.20100306474545
aF47.076616338128204
aF2.196847411409594
aF41.265684927578306
aF61.57348316902126
aF20.03314097106226
aF23.411534943050494
aF51.828772912990786
aF5.373263846003908
aF7.00531436907125
aF17.351476262685274
aF11.445038153423909
aF26.882294850220454
aF22.185226990140198
aF12.120918601954207
aF9.50636012427369
aF7.284602352015241
aF16.25610019309393
aF15.06262710059035
aF94.22154207243715
aF82.17720421588915
aF62.73982467349606
aF73.31333449788886
aF97.82818038049113
aF73.7212449208263
aF39.94232219417348
aF29.5876347456974
aF43.046415863799496
aF43.223783441532824
aF16.089976774926292
aF6.583667446107282
aF1.5285557922110764
aF14.880258197230802
aF25.826957040811372
aF184.00272944464447
aF163.96404026799485
aF56.86606005919828
aF1.838850573096927
aF45.66768979662087
aF23.115025169651652
aF79.40412748179405
aF2.4723943057152185
aF9.705168518980456
aF81.09343337152553
aF101.40054537343015
aF291.0494129505019
aF5.812562494320068
aF27.648089753396757
aF55.74591623947738
aF10.02427813935697
aF15.06262710059035
aF15.06262710059035
aF71.10175603989778
aF75.93414184107834
aF94.47253256258136
aF11.782541161203374
aF34.777324926637554
aF18.82689710373557
aF5.639731035348882
aF6.22803490310919
aF9.690825167933536
aF15.06262710059035
aF14.756247436446436
aF43.93653026554182
aF46.90538874475462
aF68.31271787628589
aF12.973723484193787
aF4.8092516920238095
aF27.740268308083618
aF18.680661105730067
aF9.331687571714395
aF7.280049937299454
aF37.80702804200048
aF33.130840045419205
aF20.160477525881014
aF13.02692153683028
aF5.0475161305331815
aF55.55085964783673
aF11.77551602550914
aF7.416977363928526
aF34.49701857642708
aF6.216074659507005
aF12.695569843613983
aF20.451344002670886
aF10.77231849321573
aF15.06262710059035
aF15.06262710059035
aF50.53592331986742
aF53.36758078638996
aF45.177907421887554
aF105.56802573337703
aF62.82795348501905
aF13.27009743318146
aF17.02029685347261
aF23.07803736923068
aF54.63882662610398
aF55.617571058919616
aF424.0088262170652
aF354.47169919631
aF328.81533517231975
aF207.60480608464587
aF89.54422111251844
aF17.511276387585347
aF30.962189217182434
aF97.12648624546138
aF97.12648624546138
aF23.09916123047431
aF49.31828581339733
aF30.34934077246671
aF7.496923265349293
aF19.101461705178306
aF38.138121666914586
aF6.5784127432387205
aF28.087177957856465
aF21.8124825345815
aF69.46508394697159
aF35.88987209923217
aF13.06504907665897
aF15.227420266057837
aF12.015688288821561
aF12.066144870454156
aF8.690211037248698
aF7.772050180447302
aF17.372368305327225
aF11.557659922480148
aF42.962988049488075
aF32.369819589036176
aF24.84769655408617
aF33.506454717105065
aF92.37565539130941
aF83.25257498318719
aF52.38998573847402
aF11.015110697406904
aF24.056569914237173
aF22.741318044046675
aF174.56716445347155
aF103.6829114045817
aF10.582151372779206
aF9.221723924019628
aF15.06262710059035
aF15.06262710059035
aF8.089380902653115
aF40.71081390053172
aF33.04492310894736
aF166.28147496493207
aF90.45077624718584
aF90.45077624718584
aF28.657408250065416
aF77.26301257664191
aF115.81572123313913
aF46.950642734606156
aF25.25751901205995
aF17.221637949497346
aF18.555791758248112
aF56.920066386794126
aF59.13540357773939
aF21.374861134668794
aF24.962573546966166
aF36.159207748494694
aF15.06262710059035
aF47.20945014688167
aF46.253529869856756
aF54.14299041573035
aF28.040274542763946
aF11.69652198312961
aF56.04347773432375
aF164.7671710250672
aF226.6888896960199
aF141.70205875361233
aF122.70873426098247
aF103.4905572907602
aF97.1748355887918
aF123.05058816016265
aF56.68720320504955
aF160.81293660179543
aF255.5331510495424
aF213.87645922507943
aF219.42747191119716
aF174.96606513555753
aF155.26896488267067
aF219.34631772744626
aF96.10071151254101
aF12.146648930750617
aF2.6976500969271475
aF14.440252094426421
aF15.06262710059035
aF9.644005453061233
aF10.240224075596938
aF10.240224075596938
aF19.88045563922085
aF50.5956258625274
aF11.835829362182782
aF34.18641614140558
aF41.14589380311607
aF17.684007143306978
aF19.728852498972785
aF16.342183043442102
aF5.659559867476064
aF11.160000447665608
aF12.73884260109808
aF18.121148261322148
aF18.627661130454555
aF37.90519662577957
aF13.501611584015944
aF9.162884186992677
aF9.651791736472616
aF9.212117528599265
aF84.98983346316072
aF60.84154960988496
aF51.8245195639082
aF5.255300926281014
aF3.3459062716948496
aF29.678499230756916
aF79.61666818539814
aF21.11621398420755
aF5.889129766317785
aF27.28360822888001
aF52.59348086012443
aF50.96536289897488
aF27.431150328162904
aF27.059651028071272
aF143.0977791660892
aF10.54855507293867
aF10.616284057358078
aF23.134623350531868
aF41.493052589691835
aF35.511469654457194
aF9.699520125403119
aF11.975145753946967
aF96.48229740070151
aF99.25045757997765
aF33.60346991245537
aF28.219726346109777
aF26.051156859989685
aF45.26045256052156
aF12.481355493488806
aF8.571000154936812
aF40.14730139950993
aF47.99418848735575
aF39.18436453724413
aF14.311854043683715
aF67.12825471716815
aF15.583071564005317
aF10.27764815496292
aF38.972085489253026
aF79.85513890308073
aF179.4681343920932
aF214.68861726205157
aF56.387876991865696
aF20.678860564900848
aF13.312872086761963
aF12.70414732596432
aF15.333248617994105
aF7.699929904485331
aF15.06262710059035
aF10.513380943240263
aF18.337289256008887
aF38.45092657787642
aF67.63526785158219
aF155.04128779637108
aa(dp2
I0
F25.151174593140674
sI1
F31.220401460885597
sI2
F30.02431153659223
sI3
F26.744871970292287
sI4
F54.206029695952076
sI5
F47.58515866223726
sI6
F22.274292205219727
sI7
F24.299517622101146
sI8
F60.90352634239838
sI9
F43.218119203918015
sI10
F50.83553054230944
sI11
F43.39170268584233
sI12
F35.64836871812251
sI14
F26.647971986334277
sI15
F22.993636346788172
sI16
F14.059249538704778
sI17
F36.58235819911395
sI18
F24.038399998832002
sI21
F43.59321386980632
sI23
F40.85173403304247
sI24
F41.907010338000354
sI25
F23.525471012754902
sI26
F26.550228551674387
sI27
F28.831463277146423
sI28
F25.94023420670761
sI30
F23.482369191391083
sI31
F19.506369835906316
sI32
F23.994250795375077
sI33
F28.760476256236025
sI35
F28.419700009446167
sI36
F44.93780417949046
sI40
F22.057752641347964
sI41
F34.113089411881624
sI42
F17.85863678470188
sI43
F60.36328627656476
sI45
F38.96295509025238
sI46
F74.4222047650664
sI47
F20.17272970712183
sI48
F32.991340056220125
sI49
F23.646963234483305
sI52
F33.99243445019949
sI53
F86.71495644276287
sI54
F41.20717014125437
sI56
F25.08353324741702
sI57
F17.27167503451903
sI58
F26.044795718618055
sI59
F47.43154407990063
sI60
F94.74155708051762
sI61
F29.65998332642434
sI62
F57.6305798233097
sI63
F80.52753891084363
sI66
F35.51761256606414
sI67
F142.7434429064839
sI68
F33.72097135714375
sI69
F26.384035205048875
sI70
F42.552495449879814
sI71
F32.85990446083393
sI72
F67.96460535912803
sI73
F35.92980958480346
sa.